
test:     file format elf64-x86-64


Disassembly of section .init:

0000000000001000 <_init>:
    1000:	f3 0f 1e fa          	endbr64 
    1004:	48 83 ec 08          	sub    $0x8,%rsp
    1008:	48 8b 05 d9 af 01 00 	mov    0x1afd9(%rip),%rax        # 1bfe8 <__gmon_start__>
    100f:	48 85 c0             	test   %rax,%rax
    1012:	74 02                	je     1016 <_init+0x16>
    1014:	ff d0                	callq  *%rax
    1016:	48 83 c4 08          	add    $0x8,%rsp
    101a:	c3                   	retq   

Disassembly of section .plt:

0000000000001020 <.plt>:
    1020:	ff 35 a2 af 01 00    	pushq  0x1afa2(%rip)        # 1bfc8 <_GLOBAL_OFFSET_TABLE_+0x8>
    1026:	f2 ff 25 a3 af 01 00 	bnd jmpq *0x1afa3(%rip)        # 1bfd0 <_GLOBAL_OFFSET_TABLE_+0x10>
    102d:	0f 1f 00             	nopl   (%rax)

Disassembly of section .plt.got:

0000000000001030 <__cxa_finalize@plt>:
    1030:	f3 0f 1e fa          	endbr64 
    1034:	f2 ff 25 bd af 01 00 	bnd jmpq *0x1afbd(%rip)        # 1bff8 <__cxa_finalize@GLIBC_2.2.5>
    103b:	0f 1f 44 00 00       	nopl   0x0(%rax,%rax,1)

Disassembly of section .text:

0000000000001040 <_start>:
    1040:	f3 0f 1e fa          	endbr64 
    1044:	31 ed                	xor    %ebp,%ebp
    1046:	49 89 d1             	mov    %rdx,%r9
    1049:	5e                   	pop    %rsi
    104a:	48 89 e2             	mov    %rsp,%rdx
    104d:	48 83 e4 f0          	and    $0xfffffffffffffff0,%rsp
    1051:	50                   	push   %rax
    1052:	54                   	push   %rsp
    1053:	4c 8d 05 26 89 01 00 	lea    0x18926(%rip),%r8        # 19980 <__libc_csu_fini>
    105a:	48 8d 0d af 88 01 00 	lea    0x188af(%rip),%rcx        # 19910 <__libc_csu_init>
    1061:	48 8d 3d c1 00 00 00 	lea    0xc1(%rip),%rdi        # 1129 <main>
    1068:	ff 15 72 af 01 00    	callq  *0x1af72(%rip)        # 1bfe0 <__libc_start_main@GLIBC_2.2.5>
    106e:	f4                   	hlt    
    106f:	90                   	nop

0000000000001070 <deregister_tm_clones>:
    1070:	48 8d 3d 99 af 01 00 	lea    0x1af99(%rip),%rdi        # 1c010 <__TMC_END__>
    1077:	48 8d 05 92 af 01 00 	lea    0x1af92(%rip),%rax        # 1c010 <__TMC_END__>
    107e:	48 39 f8             	cmp    %rdi,%rax
    1081:	74 15                	je     1098 <deregister_tm_clones+0x28>
    1083:	48 8b 05 4e af 01 00 	mov    0x1af4e(%rip),%rax        # 1bfd8 <_ITM_deregisterTMCloneTable>
    108a:	48 85 c0             	test   %rax,%rax
    108d:	74 09                	je     1098 <deregister_tm_clones+0x28>
    108f:	ff e0                	jmpq   *%rax
    1091:	0f 1f 80 00 00 00 00 	nopl   0x0(%rax)
    1098:	c3                   	retq   
    1099:	0f 1f 80 00 00 00 00 	nopl   0x0(%rax)

00000000000010a0 <register_tm_clones>:
    10a0:	48 8d 3d 69 af 01 00 	lea    0x1af69(%rip),%rdi        # 1c010 <__TMC_END__>
    10a7:	48 8d 35 62 af 01 00 	lea    0x1af62(%rip),%rsi        # 1c010 <__TMC_END__>
    10ae:	48 29 fe             	sub    %rdi,%rsi
    10b1:	48 89 f0             	mov    %rsi,%rax
    10b4:	48 c1 ee 3f          	shr    $0x3f,%rsi
    10b8:	48 c1 f8 03          	sar    $0x3,%rax
    10bc:	48 01 c6             	add    %rax,%rsi
    10bf:	48 d1 fe             	sar    %rsi
    10c2:	74 14                	je     10d8 <register_tm_clones+0x38>
    10c4:	48 8b 05 25 af 01 00 	mov    0x1af25(%rip),%rax        # 1bff0 <_ITM_registerTMCloneTable>
    10cb:	48 85 c0             	test   %rax,%rax
    10ce:	74 08                	je     10d8 <register_tm_clones+0x38>
    10d0:	ff e0                	jmpq   *%rax
    10d2:	66 0f 1f 44 00 00    	nopw   0x0(%rax,%rax,1)
    10d8:	c3                   	retq   
    10d9:	0f 1f 80 00 00 00 00 	nopl   0x0(%rax)

00000000000010e0 <__do_global_dtors_aux>:
    10e0:	f3 0f 1e fa          	endbr64 
    10e4:	80 3d 25 af 01 00 00 	cmpb   $0x0,0x1af25(%rip)        # 1c010 <__TMC_END__>
    10eb:	75 2b                	jne    1118 <__do_global_dtors_aux+0x38>
    10ed:	55                   	push   %rbp
    10ee:	48 83 3d 02 af 01 00 	cmpq   $0x0,0x1af02(%rip)        # 1bff8 <__cxa_finalize@GLIBC_2.2.5>
    10f5:	00 
    10f6:	48 89 e5             	mov    %rsp,%rbp
    10f9:	74 0c                	je     1107 <__do_global_dtors_aux+0x27>
    10fb:	48 8b 3d 06 af 01 00 	mov    0x1af06(%rip),%rdi        # 1c008 <__dso_handle>
    1102:	e8 29 ff ff ff       	callq  1030 <__cxa_finalize@plt>
    1107:	e8 64 ff ff ff       	callq  1070 <deregister_tm_clones>
    110c:	c6 05 fd ae 01 00 01 	movb   $0x1,0x1aefd(%rip)        # 1c010 <__TMC_END__>
    1113:	5d                   	pop    %rbp
    1114:	c3                   	retq   
    1115:	0f 1f 00             	nopl   (%rax)
    1118:	c3                   	retq   
    1119:	0f 1f 80 00 00 00 00 	nopl   0x0(%rax)

0000000000001120 <frame_dummy>:
    1120:	f3 0f 1e fa          	endbr64 
    1124:	e9 77 ff ff ff       	jmpq   10a0 <register_tm_clones>

0000000000001129 <main>:
    1129:	f3 0f 1e fa          	endbr64 
    112d:	55                   	push   %rbp
    112e:	48 89 e5             	mov    %rsp,%rbp
    1131:	ba 00 00 00 00       	mov    $0x0,%edx
    1136:	be 00 00 00 00       	mov    $0x0,%esi
    113b:	bf 00 00 00 00       	mov    $0x0,%edi
    1140:	e8 07 00 00 00       	callq  114c <kernel>
    1145:	b8 00 00 00 00       	mov    $0x0,%eax
    114a:	5d                   	pop    %rbp
    114b:	c3                   	retq   

000000000000114c <kernel>:
    114c:	53                   	push   %rbx
    114d:	41 54                	push   %r12
    114f:	41 55                	push   %r13
    1151:	41 56                	push   %r14
    1153:	41 57                	push   %r15
    1155:	62 01 3d 40 ef c0    	vpxord %zmm24,%zmm24,%zmm24
    115b:	62 01 35 40 ef c9    	vpxord %zmm25,%zmm25,%zmm25
    1161:	62 01 2d 40 ef d2    	vpxord %zmm26,%zmm26,%zmm26
    1167:	62 01 25 40 ef db    	vpxord %zmm27,%zmm27,%zmm27
    116d:	62 01 1d 40 ef e4    	vpxord %zmm28,%zmm28,%zmm28
    1173:	62 01 15 40 ef ed    	vpxord %zmm29,%zmm29,%zmm29
    1179:	62 01 0d 40 ef f6    	vpxord %zmm30,%zmm30,%zmm30
    117f:	62 01 05 40 ef ff    	vpxord %zmm31,%zmm31,%zmm31
    1185:	62 f1 fd 48 10 06    	vmovupd (%rsi),%zmm0
    118b:	62 62 fd 58 bc 07    	vfnmadd231pd (%rdi){1to8},%zmm0,%zmm24
    1191:	62 62 fd 58 bc 4f 17 	vfnmadd231pd 0xb8(%rdi){1to8},%zmm0,%zmm25
    1198:	62 62 fd 58 bc 57 17 	vfnmadd231pd 0xb8(%rdi){1to8},%zmm0,%zmm26
    119f:	62 62 fd 58 bc 5f 17 	vfnmadd231pd 0xb8(%rdi){1to8},%zmm0,%zmm27
    11a6:	62 62 fd 58 b8 67 49 	vfmadd231pd 0x248(%rdi){1to8},%zmm0,%zmm28
    11ad:	62 62 fd 58 b8 6f 49 	vfmadd231pd 0x248(%rdi){1to8},%zmm0,%zmm29
    11b4:	62 62 fd 58 b8 77 49 	vfmadd231pd 0x248(%rdi){1to8},%zmm0,%zmm30
    11bb:	62 62 fd 58 b8 7f 7b 	vfmadd231pd 0x3d8(%rdi){1to8},%zmm0,%zmm31
    11c2:	62 f1 fd 48 10 86 00 	vmovupd 0x5dc00(%rsi),%zmm0
    11c9:	dc 05 00 
    11cc:	62 62 fd 58 bc 47 01 	vfnmadd231pd 0x8(%rdi){1to8},%zmm0,%zmm24
    11d3:	62 62 fd 58 b8 4f 18 	vfmadd231pd 0xc0(%rdi){1to8},%zmm0,%zmm25
    11da:	62 62 fd 58 b8 57 19 	vfmadd231pd 0xc8(%rdi){1to8},%zmm0,%zmm26
    11e1:	62 62 fd 58 b8 5f 18 	vfmadd231pd 0xc0(%rdi){1to8},%zmm0,%zmm27
    11e8:	62 62 fd 58 bc 67 4a 	vfnmadd231pd 0x250(%rdi){1to8},%zmm0,%zmm28
    11ef:	62 62 fd 58 bc 6f 4b 	vfnmadd231pd 0x258(%rdi){1to8},%zmm0,%zmm29
    11f6:	62 62 fd 58 bc 77 4a 	vfnmadd231pd 0x250(%rdi){1to8},%zmm0,%zmm30
    11fd:	62 62 fd 58 bc 7f 7c 	vfnmadd231pd 0x3e0(%rdi){1to8},%zmm0,%zmm31
    1204:	62 f1 fd 48 10 86 00 	vmovupd 0xbb800(%rsi),%zmm0
    120b:	b8 0b 00 
    120e:	62 62 fd 58 bc 47 01 	vfnmadd231pd 0x8(%rdi){1to8},%zmm0,%zmm24
    1215:	62 62 fd 58 b8 4f 19 	vfmadd231pd 0xc8(%rdi){1to8},%zmm0,%zmm25
    121c:	62 62 fd 58 b8 57 18 	vfmadd231pd 0xc0(%rdi){1to8},%zmm0,%zmm26
    1223:	62 62 fd 58 b8 5f 18 	vfmadd231pd 0xc0(%rdi){1to8},%zmm0,%zmm27
    122a:	62 62 fd 58 bc 67 4b 	vfnmadd231pd 0x258(%rdi){1to8},%zmm0,%zmm28
    1231:	62 62 fd 58 bc 6f 4a 	vfnmadd231pd 0x250(%rdi){1to8},%zmm0,%zmm29
    1238:	62 62 fd 58 bc 77 4a 	vfnmadd231pd 0x250(%rdi){1to8},%zmm0,%zmm30
    123f:	62 62 fd 58 b8 7f 7d 	vfmadd231pd 0x3e8(%rdi){1to8},%zmm0,%zmm31
    1246:	62 f1 fd 48 10 86 00 	vmovupd 0x119400(%rsi),%zmm0
    124d:	94 11 00 
    1250:	62 62 fd 58 bc 47 01 	vfnmadd231pd 0x8(%rdi){1to8},%zmm0,%zmm24
    1257:	62 62 fd 58 b8 4f 18 	vfmadd231pd 0xc0(%rdi){1to8},%zmm0,%zmm25
    125e:	62 62 fd 58 b8 57 18 	vfmadd231pd 0xc0(%rdi){1to8},%zmm0,%zmm26
    1265:	62 62 fd 58 b8 5f 19 	vfmadd231pd 0xc8(%rdi){1to8},%zmm0,%zmm27
    126c:	62 62 fd 58 bc 67 4a 	vfnmadd231pd 0x250(%rdi){1to8},%zmm0,%zmm28
    1273:	62 62 fd 58 bc 6f 4a 	vfnmadd231pd 0x250(%rdi){1to8},%zmm0,%zmm29
    127a:	62 62 fd 58 bc 77 4b 	vfnmadd231pd 0x258(%rdi){1to8},%zmm0,%zmm30
    1281:	62 62 fd 58 bc 7f 7c 	vfnmadd231pd 0x3e0(%rdi){1to8},%zmm0,%zmm31
    1288:	62 f1 fd 48 10 86 00 	vmovupd 0x177000(%rsi),%zmm0
    128f:	70 17 00 
    1292:	62 62 fd 58 b8 47 02 	vfmadd231pd 0x10(%rdi){1to8},%zmm0,%zmm24
    1299:	62 62 fd 58 b8 4f 1a 	vfmadd231pd 0xd0(%rdi){1to8},%zmm0,%zmm25
    12a0:	62 62 fd 58 b8 57 1a 	vfmadd231pd 0xd0(%rdi){1to8},%zmm0,%zmm26
    12a7:	62 62 fd 58 b8 5f 1a 	vfmadd231pd 0xd0(%rdi){1to8},%zmm0,%zmm27
    12ae:	62 62 fd 58 bc 67 4c 	vfnmadd231pd 0x260(%rdi){1to8},%zmm0,%zmm28
    12b5:	62 62 fd 58 bc 6f 4c 	vfnmadd231pd 0x260(%rdi){1to8},%zmm0,%zmm29
    12bc:	62 62 fd 58 bc 77 4c 	vfnmadd231pd 0x260(%rdi){1to8},%zmm0,%zmm30
    12c3:	62 62 fd 58 b8 7f 7e 	vfmadd231pd 0x3f0(%rdi){1to8},%zmm0,%zmm31
    12ca:	62 f1 fd 48 10 86 00 	vmovupd 0x1d4c00(%rsi),%zmm0
    12d1:	4c 1d 00 
    12d4:	62 62 fd 58 b8 47 03 	vfmadd231pd 0x18(%rdi){1to8},%zmm0,%zmm24
    12db:	62 62 fd 58 b8 4f 1b 	vfmadd231pd 0xd8(%rdi){1to8},%zmm0,%zmm25
    12e2:	62 62 fd 58 b8 57 1c 	vfmadd231pd 0xe0(%rdi){1to8},%zmm0,%zmm26
    12e9:	62 62 fd 58 b8 5f 1b 	vfmadd231pd 0xd8(%rdi){1to8},%zmm0,%zmm27
    12f0:	62 62 fd 58 b8 67 4d 	vfmadd231pd 0x268(%rdi){1to8},%zmm0,%zmm28
    12f7:	62 62 fd 58 b8 6f 4e 	vfmadd231pd 0x270(%rdi){1to8},%zmm0,%zmm29
    12fe:	62 62 fd 58 b8 77 4d 	vfmadd231pd 0x268(%rdi){1to8},%zmm0,%zmm30
    1305:	62 62 fd 58 b8 7f 7f 	vfmadd231pd 0x3f8(%rdi){1to8},%zmm0,%zmm31
    130c:	62 f1 fd 48 10 86 00 	vmovupd 0x232800(%rsi),%zmm0
    1313:	28 23 00 
    1316:	62 62 fd 58 b8 47 03 	vfmadd231pd 0x18(%rdi){1to8},%zmm0,%zmm24
    131d:	62 62 fd 58 b8 4f 1c 	vfmadd231pd 0xe0(%rdi){1to8},%zmm0,%zmm25
    1324:	62 62 fd 58 b8 57 1b 	vfmadd231pd 0xd8(%rdi){1to8},%zmm0,%zmm26
    132b:	62 62 fd 58 b8 5f 1b 	vfmadd231pd 0xd8(%rdi){1to8},%zmm0,%zmm27
    1332:	62 62 fd 58 b8 67 4e 	vfmadd231pd 0x270(%rdi){1to8},%zmm0,%zmm28
    1339:	62 62 fd 58 b8 6f 4d 	vfmadd231pd 0x268(%rdi){1to8},%zmm0,%zmm29
    1340:	62 62 fd 58 b8 77 4d 	vfmadd231pd 0x268(%rdi){1to8},%zmm0,%zmm30
    1347:	62 62 fd 58 bc bf 00 	vfnmadd231pd 0x400(%rdi){1to8},%zmm0,%zmm31
    134e:	04 00 00 
    1351:	62 f1 fd 48 10 86 00 	vmovupd 0x290400(%rsi),%zmm0
    1358:	04 29 00 
    135b:	62 62 fd 58 b8 47 03 	vfmadd231pd 0x18(%rdi){1to8},%zmm0,%zmm24
    1362:	62 62 fd 58 b8 4f 1b 	vfmadd231pd 0xd8(%rdi){1to8},%zmm0,%zmm25
    1369:	62 62 fd 58 b8 57 1b 	vfmadd231pd 0xd8(%rdi){1to8},%zmm0,%zmm26
    1370:	62 62 fd 58 b8 5f 1c 	vfmadd231pd 0xe0(%rdi){1to8},%zmm0,%zmm27
    1377:	62 62 fd 58 b8 67 4d 	vfmadd231pd 0x268(%rdi){1to8},%zmm0,%zmm28
    137e:	62 62 fd 58 b8 6f 4d 	vfmadd231pd 0x268(%rdi){1to8},%zmm0,%zmm29
    1385:	62 62 fd 58 b8 77 4e 	vfmadd231pd 0x270(%rdi){1to8},%zmm0,%zmm30
    138c:	62 62 fd 58 b8 7f 7f 	vfmadd231pd 0x3f8(%rdi){1to8},%zmm0,%zmm31
    1393:	62 f1 fd 48 10 86 00 	vmovupd 0x2ee000(%rsi),%zmm0
    139a:	e0 2e 00 
    139d:	62 62 fd 58 b8 47 04 	vfmadd231pd 0x20(%rdi){1to8},%zmm0,%zmm24
    13a4:	62 62 fd 58 bc 4f 1d 	vfnmadd231pd 0xe8(%rdi){1to8},%zmm0,%zmm25
    13ab:	62 62 fd 58 bc 57 1d 	vfnmadd231pd 0xe8(%rdi){1to8},%zmm0,%zmm26
    13b2:	62 62 fd 58 bc 5f 1d 	vfnmadd231pd 0xe8(%rdi){1to8},%zmm0,%zmm27
    13b9:	62 62 fd 58 b8 67 4f 	vfmadd231pd 0x278(%rdi){1to8},%zmm0,%zmm28
    13c0:	62 62 fd 58 b8 6f 4f 	vfmadd231pd 0x278(%rdi){1to8},%zmm0,%zmm29
    13c7:	62 62 fd 58 b8 77 4f 	vfmadd231pd 0x278(%rdi){1to8},%zmm0,%zmm30
    13ce:	62 62 fd 58 bc bf 08 	vfnmadd231pd 0x408(%rdi){1to8},%zmm0,%zmm31
    13d5:	04 00 00 
    13d8:	62 f1 fd 48 10 86 00 	vmovupd 0x34bc00(%rsi),%zmm0
    13df:	bc 34 00 
    13e2:	62 62 fd 58 b8 47 05 	vfmadd231pd 0x28(%rdi){1to8},%zmm0,%zmm24
    13e9:	62 62 fd 58 b8 4f 1e 	vfmadd231pd 0xf0(%rdi){1to8},%zmm0,%zmm25
    13f0:	62 62 fd 58 bc 57 1f 	vfnmadd231pd 0xf8(%rdi){1to8},%zmm0,%zmm26
    13f7:	62 62 fd 58 b8 5f 1e 	vfmadd231pd 0xf0(%rdi){1to8},%zmm0,%zmm27
    13fe:	62 62 fd 58 bc 67 50 	vfnmadd231pd 0x280(%rdi){1to8},%zmm0,%zmm28
    1405:	62 62 fd 58 bc 6f 51 	vfnmadd231pd 0x288(%rdi){1to8},%zmm0,%zmm29
    140c:	62 62 fd 58 bc 77 50 	vfnmadd231pd 0x280(%rdi){1to8},%zmm0,%zmm30
    1413:	62 62 fd 58 bc bf 10 	vfnmadd231pd 0x410(%rdi){1to8},%zmm0,%zmm31
    141a:	04 00 00 
    141d:	62 f1 fd 48 10 86 00 	vmovupd 0x3a9800(%rsi),%zmm0
    1424:	98 3a 00 
    1427:	62 62 fd 58 b8 47 05 	vfmadd231pd 0x28(%rdi){1to8},%zmm0,%zmm24
    142e:	62 62 fd 58 bc 4f 1f 	vfnmadd231pd 0xf8(%rdi){1to8},%zmm0,%zmm25
    1435:	62 62 fd 58 b8 57 1e 	vfmadd231pd 0xf0(%rdi){1to8},%zmm0,%zmm26
    143c:	62 62 fd 58 b8 5f 1e 	vfmadd231pd 0xf0(%rdi){1to8},%zmm0,%zmm27
    1443:	62 62 fd 58 bc 67 51 	vfnmadd231pd 0x288(%rdi){1to8},%zmm0,%zmm28
    144a:	62 62 fd 58 bc 6f 50 	vfnmadd231pd 0x280(%rdi){1to8},%zmm0,%zmm29
    1451:	62 62 fd 58 bc 77 50 	vfnmadd231pd 0x280(%rdi){1to8},%zmm0,%zmm30
    1458:	62 62 fd 58 b8 bf 18 	vfmadd231pd 0x418(%rdi){1to8},%zmm0,%zmm31
    145f:	04 00 00 
    1462:	62 f1 fd 48 10 86 00 	vmovupd 0x407400(%rsi),%zmm0
    1469:	74 40 00 
    146c:	62 62 fd 58 b8 47 05 	vfmadd231pd 0x28(%rdi){1to8},%zmm0,%zmm24
    1473:	62 62 fd 58 b8 4f 1e 	vfmadd231pd 0xf0(%rdi){1to8},%zmm0,%zmm25
    147a:	62 62 fd 58 b8 57 1e 	vfmadd231pd 0xf0(%rdi){1to8},%zmm0,%zmm26
    1481:	62 62 fd 58 bc 5f 1f 	vfnmadd231pd 0xf8(%rdi){1to8},%zmm0,%zmm27
    1488:	62 62 fd 58 bc 67 50 	vfnmadd231pd 0x280(%rdi){1to8},%zmm0,%zmm28
    148f:	62 62 fd 58 bc 6f 50 	vfnmadd231pd 0x280(%rdi){1to8},%zmm0,%zmm29
    1496:	62 62 fd 58 bc 77 51 	vfnmadd231pd 0x288(%rdi){1to8},%zmm0,%zmm30
    149d:	62 62 fd 58 bc bf 10 	vfnmadd231pd 0x410(%rdi){1to8},%zmm0,%zmm31
    14a4:	04 00 00 
    14a7:	62 f1 fd 48 10 86 00 	vmovupd 0x465000(%rsi),%zmm0
    14ae:	50 46 00 
    14b1:	62 62 fd 58 bc 47 06 	vfnmadd231pd 0x30(%rdi){1to8},%zmm0,%zmm24
    14b8:	62 62 fd 58 bc 4f 20 	vfnmadd231pd 0x100(%rdi){1to8},%zmm0,%zmm25
    14bf:	62 62 fd 58 bc 57 21 	vfnmadd231pd 0x108(%rdi){1to8},%zmm0,%zmm26
    14c6:	62 62 fd 58 bc 5f 20 	vfnmadd231pd 0x100(%rdi){1to8},%zmm0,%zmm27
    14cd:	62 62 fd 58 b8 67 52 	vfmadd231pd 0x290(%rdi){1to8},%zmm0,%zmm28
    14d4:	62 62 fd 58 bc 6f 53 	vfnmadd231pd 0x298(%rdi){1to8},%zmm0,%zmm29
    14db:	62 62 fd 58 b8 77 52 	vfmadd231pd 0x290(%rdi){1to8},%zmm0,%zmm30
    14e2:	62 62 fd 58 bc bf 20 	vfnmadd231pd 0x420(%rdi){1to8},%zmm0,%zmm31
    14e9:	04 00 00 
    14ec:	62 f1 fd 48 10 86 00 	vmovupd 0x4c2c00(%rsi),%zmm0
    14f3:	2c 4c 00 
    14f6:	62 62 fd 58 bc 47 06 	vfnmadd231pd 0x30(%rdi){1to8},%zmm0,%zmm24
    14fd:	62 62 fd 58 bc 4f 21 	vfnmadd231pd 0x108(%rdi){1to8},%zmm0,%zmm25
    1504:	62 62 fd 58 bc 57 20 	vfnmadd231pd 0x100(%rdi){1to8},%zmm0,%zmm26
    150b:	62 62 fd 58 bc 5f 20 	vfnmadd231pd 0x100(%rdi){1to8},%zmm0,%zmm27
    1512:	62 62 fd 58 bc 67 53 	vfnmadd231pd 0x298(%rdi){1to8},%zmm0,%zmm28
    1519:	62 62 fd 58 b8 6f 52 	vfmadd231pd 0x290(%rdi){1to8},%zmm0,%zmm29
    1520:	62 62 fd 58 b8 77 52 	vfmadd231pd 0x290(%rdi){1to8},%zmm0,%zmm30
    1527:	62 62 fd 58 b8 bf 28 	vfmadd231pd 0x428(%rdi){1to8},%zmm0,%zmm31
    152e:	04 00 00 
    1531:	62 f1 fd 48 10 86 00 	vmovupd 0x520800(%rsi),%zmm0
    1538:	08 52 00 
    153b:	62 62 fd 58 b8 47 07 	vfmadd231pd 0x38(%rdi){1to8},%zmm0,%zmm24
    1542:	62 62 fd 58 b8 4f 22 	vfmadd231pd 0x110(%rdi){1to8},%zmm0,%zmm25
    1549:	62 62 fd 58 bc 57 23 	vfnmadd231pd 0x118(%rdi){1to8},%zmm0,%zmm26
    1550:	62 62 fd 58 bc 5f 23 	vfnmadd231pd 0x118(%rdi){1to8},%zmm0,%zmm27
    1557:	62 62 fd 58 bc 67 54 	vfnmadd231pd 0x2a0(%rdi){1to8},%zmm0,%zmm28
    155e:	62 62 fd 58 bc 6f 55 	vfnmadd231pd 0x2a8(%rdi){1to8},%zmm0,%zmm29
    1565:	62 62 fd 58 bc 77 55 	vfnmadd231pd 0x2a8(%rdi){1to8},%zmm0,%zmm30
    156c:	62 62 fd 58 bc bf 30 	vfnmadd231pd 0x430(%rdi){1to8},%zmm0,%zmm31
    1573:	04 00 00 
    1576:	62 f1 fd 48 10 86 00 	vmovupd 0x57e400(%rsi),%zmm0
    157d:	e4 57 00 
    1580:	62 62 fd 58 b8 47 07 	vfmadd231pd 0x38(%rdi){1to8},%zmm0,%zmm24
    1587:	62 62 fd 58 bc 4f 23 	vfnmadd231pd 0x118(%rdi){1to8},%zmm0,%zmm25
    158e:	62 62 fd 58 b8 57 22 	vfmadd231pd 0x110(%rdi){1to8},%zmm0,%zmm26
    1595:	62 62 fd 58 bc 5f 23 	vfnmadd231pd 0x118(%rdi){1to8},%zmm0,%zmm27
    159c:	62 62 fd 58 bc 67 55 	vfnmadd231pd 0x2a8(%rdi){1to8},%zmm0,%zmm28
    15a3:	62 62 fd 58 bc 6f 54 	vfnmadd231pd 0x2a0(%rdi){1to8},%zmm0,%zmm29
    15aa:	62 62 fd 58 bc 77 55 	vfnmadd231pd 0x2a8(%rdi){1to8},%zmm0,%zmm30
    15b1:	62 62 fd 58 b8 bf 38 	vfmadd231pd 0x438(%rdi){1to8},%zmm0,%zmm31
    15b8:	04 00 00 
    15bb:	62 f1 fd 48 10 86 00 	vmovupd 0x5dc000(%rsi),%zmm0
    15c2:	c0 5d 00 
    15c5:	62 62 fd 58 bc 47 06 	vfnmadd231pd 0x30(%rdi){1to8},%zmm0,%zmm24
    15cc:	62 62 fd 58 bc 4f 20 	vfnmadd231pd 0x100(%rdi){1to8},%zmm0,%zmm25
    15d3:	62 62 fd 58 bc 57 20 	vfnmadd231pd 0x100(%rdi){1to8},%zmm0,%zmm26
    15da:	62 62 fd 58 bc 5f 21 	vfnmadd231pd 0x108(%rdi){1to8},%zmm0,%zmm27
    15e1:	62 62 fd 58 b8 67 52 	vfmadd231pd 0x290(%rdi){1to8},%zmm0,%zmm28
    15e8:	62 62 fd 58 b8 6f 52 	vfmadd231pd 0x290(%rdi){1to8},%zmm0,%zmm29
    15ef:	62 62 fd 58 bc 77 53 	vfnmadd231pd 0x298(%rdi){1to8},%zmm0,%zmm30
    15f6:	62 62 fd 58 bc bf 20 	vfnmadd231pd 0x420(%rdi){1to8},%zmm0,%zmm31
    15fd:	04 00 00 
    1600:	62 f1 fd 48 10 86 00 	vmovupd 0x639c00(%rsi),%zmm0
    1607:	9c 63 00 
    160a:	62 62 fd 58 b8 47 07 	vfmadd231pd 0x38(%rdi){1to8},%zmm0,%zmm24
    1611:	62 62 fd 58 bc 4f 23 	vfnmadd231pd 0x118(%rdi){1to8},%zmm0,%zmm25
    1618:	62 62 fd 58 bc 57 23 	vfnmadd231pd 0x118(%rdi){1to8},%zmm0,%zmm26
    161f:	62 62 fd 58 b8 5f 22 	vfmadd231pd 0x110(%rdi){1to8},%zmm0,%zmm27
    1626:	62 62 fd 58 bc 67 55 	vfnmadd231pd 0x2a8(%rdi){1to8},%zmm0,%zmm28
    162d:	62 62 fd 58 bc 6f 55 	vfnmadd231pd 0x2a8(%rdi){1to8},%zmm0,%zmm29
    1634:	62 62 fd 58 bc 77 54 	vfnmadd231pd 0x2a0(%rdi){1to8},%zmm0,%zmm30
    163b:	62 62 fd 58 b8 bf 38 	vfmadd231pd 0x438(%rdi){1to8},%zmm0,%zmm31
    1642:	04 00 00 
    1645:	62 f1 fd 48 10 86 00 	vmovupd 0x697800(%rsi),%zmm0
    164c:	78 69 00 
    164f:	62 62 fd 58 bc 47 08 	vfnmadd231pd 0x40(%rdi){1to8},%zmm0,%zmm24
    1656:	62 62 fd 58 bc 4f 24 	vfnmadd231pd 0x120(%rdi){1to8},%zmm0,%zmm25
    165d:	62 62 fd 58 bc 57 25 	vfnmadd231pd 0x128(%rdi){1to8},%zmm0,%zmm26
    1664:	62 62 fd 58 bc 5f 24 	vfnmadd231pd 0x120(%rdi){1to8},%zmm0,%zmm27
    166b:	62 62 fd 58 bc 67 56 	vfnmadd231pd 0x2b0(%rdi){1to8},%zmm0,%zmm28
    1672:	62 62 fd 58 bc 6f 57 	vfnmadd231pd 0x2b8(%rdi){1to8},%zmm0,%zmm29
    1679:	62 62 fd 58 bc 77 56 	vfnmadd231pd 0x2b0(%rdi){1to8},%zmm0,%zmm30
    1680:	62 62 fd 58 bc bf 40 	vfnmadd231pd 0x440(%rdi){1to8},%zmm0,%zmm31
    1687:	04 00 00 
    168a:	62 f1 fd 48 10 86 00 	vmovupd 0x6f5400(%rsi),%zmm0
    1691:	54 6f 00 
    1694:	62 62 fd 58 bc 47 08 	vfnmadd231pd 0x40(%rdi){1to8},%zmm0,%zmm24
    169b:	62 62 fd 58 bc 4f 25 	vfnmadd231pd 0x128(%rdi){1to8},%zmm0,%zmm25
    16a2:	62 62 fd 58 bc 57 24 	vfnmadd231pd 0x120(%rdi){1to8},%zmm0,%zmm26
    16a9:	62 62 fd 58 bc 5f 24 	vfnmadd231pd 0x120(%rdi){1to8},%zmm0,%zmm27
    16b0:	62 62 fd 58 bc 67 57 	vfnmadd231pd 0x2b8(%rdi){1to8},%zmm0,%zmm28
    16b7:	62 62 fd 58 bc 6f 56 	vfnmadd231pd 0x2b0(%rdi){1to8},%zmm0,%zmm29
    16be:	62 62 fd 58 bc 77 56 	vfnmadd231pd 0x2b0(%rdi){1to8},%zmm0,%zmm30
    16c5:	62 62 fd 58 bc bf 48 	vfnmadd231pd 0x448(%rdi){1to8},%zmm0,%zmm31
    16cc:	04 00 00 
    16cf:	62 f1 fd 48 10 86 00 	vmovupd 0x753000(%rsi),%zmm0
    16d6:	30 75 00 
    16d9:	62 62 fd 58 bc 47 09 	vfnmadd231pd 0x48(%rdi){1to8},%zmm0,%zmm24
    16e0:	62 62 fd 58 bc 4f 26 	vfnmadd231pd 0x130(%rdi){1to8},%zmm0,%zmm25
    16e7:	62 62 fd 58 bc 57 27 	vfnmadd231pd 0x138(%rdi){1to8},%zmm0,%zmm26
    16ee:	62 62 fd 58 bc 5f 27 	vfnmadd231pd 0x138(%rdi){1to8},%zmm0,%zmm27
    16f5:	62 62 fd 58 b8 67 58 	vfmadd231pd 0x2c0(%rdi){1to8},%zmm0,%zmm28
    16fc:	62 62 fd 58 bc 6f 59 	vfnmadd231pd 0x2c8(%rdi){1to8},%zmm0,%zmm29
    1703:	62 62 fd 58 bc 77 59 	vfnmadd231pd 0x2c8(%rdi){1to8},%zmm0,%zmm30
    170a:	62 62 fd 58 b8 bf 50 	vfmadd231pd 0x450(%rdi){1to8},%zmm0,%zmm31
    1711:	04 00 00 
    1714:	62 f1 fd 48 10 86 00 	vmovupd 0x7b0c00(%rsi),%zmm0
    171b:	0c 7b 00 
    171e:	62 62 fd 58 bc 47 09 	vfnmadd231pd 0x48(%rdi){1to8},%zmm0,%zmm24
    1725:	62 62 fd 58 bc 4f 27 	vfnmadd231pd 0x138(%rdi){1to8},%zmm0,%zmm25
    172c:	62 62 fd 58 bc 57 26 	vfnmadd231pd 0x130(%rdi){1to8},%zmm0,%zmm26
    1733:	62 62 fd 58 bc 5f 27 	vfnmadd231pd 0x138(%rdi){1to8},%zmm0,%zmm27
    173a:	62 62 fd 58 bc 67 59 	vfnmadd231pd 0x2c8(%rdi){1to8},%zmm0,%zmm28
    1741:	62 62 fd 58 b8 6f 58 	vfmadd231pd 0x2c0(%rdi){1to8},%zmm0,%zmm29
    1748:	62 62 fd 58 bc 77 59 	vfnmadd231pd 0x2c8(%rdi){1to8},%zmm0,%zmm30
    174f:	62 62 fd 58 bc bf 58 	vfnmadd231pd 0x458(%rdi){1to8},%zmm0,%zmm31
    1756:	04 00 00 
    1759:	62 f1 fd 48 10 86 00 	vmovupd 0x80e800(%rsi),%zmm0
    1760:	e8 80 00 
    1763:	62 62 fd 58 bc 47 08 	vfnmadd231pd 0x40(%rdi){1to8},%zmm0,%zmm24
    176a:	62 62 fd 58 bc 4f 24 	vfnmadd231pd 0x120(%rdi){1to8},%zmm0,%zmm25
    1771:	62 62 fd 58 bc 57 24 	vfnmadd231pd 0x120(%rdi){1to8},%zmm0,%zmm26
    1778:	62 62 fd 58 bc 5f 25 	vfnmadd231pd 0x128(%rdi){1to8},%zmm0,%zmm27
    177f:	62 62 fd 58 bc 67 56 	vfnmadd231pd 0x2b0(%rdi){1to8},%zmm0,%zmm28
    1786:	62 62 fd 58 bc 6f 56 	vfnmadd231pd 0x2b0(%rdi){1to8},%zmm0,%zmm29
    178d:	62 62 fd 58 bc 77 57 	vfnmadd231pd 0x2b8(%rdi){1to8},%zmm0,%zmm30
    1794:	62 62 fd 58 bc bf 40 	vfnmadd231pd 0x440(%rdi){1to8},%zmm0,%zmm31
    179b:	04 00 00 
    179e:	62 f1 fd 48 10 86 00 	vmovupd 0x86c400(%rsi),%zmm0
    17a5:	c4 86 00 
    17a8:	62 62 fd 58 bc 47 09 	vfnmadd231pd 0x48(%rdi){1to8},%zmm0,%zmm24
    17af:	62 62 fd 58 bc 4f 27 	vfnmadd231pd 0x138(%rdi){1to8},%zmm0,%zmm25
    17b6:	62 62 fd 58 bc 57 27 	vfnmadd231pd 0x138(%rdi){1to8},%zmm0,%zmm26
    17bd:	62 62 fd 58 bc 5f 26 	vfnmadd231pd 0x130(%rdi){1to8},%zmm0,%zmm27
    17c4:	62 62 fd 58 bc 67 59 	vfnmadd231pd 0x2c8(%rdi){1to8},%zmm0,%zmm28
    17cb:	62 62 fd 58 bc 6f 59 	vfnmadd231pd 0x2c8(%rdi){1to8},%zmm0,%zmm29
    17d2:	62 62 fd 58 b8 77 58 	vfmadd231pd 0x2c0(%rdi){1to8},%zmm0,%zmm30
    17d9:	62 62 fd 58 bc bf 58 	vfnmadd231pd 0x458(%rdi){1to8},%zmm0,%zmm31
    17e0:	04 00 00 
    17e3:	62 f1 fd 48 10 86 00 	vmovupd 0x8ca000(%rsi),%zmm0
    17ea:	a0 8c 00 
    17ed:	62 62 fd 58 bc 47 0a 	vfnmadd231pd 0x50(%rdi){1to8},%zmm0,%zmm24
    17f4:	62 62 fd 58 b8 4f 28 	vfmadd231pd 0x140(%rdi){1to8},%zmm0,%zmm25
    17fb:	62 62 fd 58 bc 57 2e 	vfnmadd231pd 0x170(%rdi){1to8},%zmm0,%zmm26
    1802:	62 62 fd 58 b8 5f 28 	vfmadd231pd 0x140(%rdi){1to8},%zmm0,%zmm27
    1809:	62 62 fd 58 bc 67 5a 	vfnmadd231pd 0x2d0(%rdi){1to8},%zmm0,%zmm28
    1810:	62 62 fd 58 b8 6f 60 	vfmadd231pd 0x300(%rdi){1to8},%zmm0,%zmm29
    1817:	62 62 fd 58 bc 77 5a 	vfnmadd231pd 0x2d0(%rdi){1to8},%zmm0,%zmm30
    181e:	62 62 fd 58 bc bf 60 	vfnmadd231pd 0x460(%rdi){1to8},%zmm0,%zmm31
    1825:	04 00 00 
    1828:	62 f1 fd 48 10 86 00 	vmovupd 0x927c00(%rsi),%zmm0
    182f:	7c 92 00 
    1832:	62 62 fd 58 b8 47 0b 	vfmadd231pd 0x58(%rdi){1to8},%zmm0,%zmm24
    1839:	62 62 fd 58 b8 4f 29 	vfmadd231pd 0x148(%rdi){1to8},%zmm0,%zmm25
    1840:	62 62 fd 58 b8 57 2b 	vfmadd231pd 0x158(%rdi){1to8},%zmm0,%zmm26
    1847:	62 62 fd 58 b8 5f 2d 	vfmadd231pd 0x168(%rdi){1to8},%zmm0,%zmm27
    184e:	62 62 fd 58 bc 67 5b 	vfnmadd231pd 0x2d8(%rdi){1to8},%zmm0,%zmm28
    1855:	62 62 fd 58 bc 6f 5d 	vfnmadd231pd 0x2e8(%rdi){1to8},%zmm0,%zmm29
    185c:	62 62 fd 58 b8 77 5f 	vfmadd231pd 0x2f8(%rdi){1to8},%zmm0,%zmm30
    1863:	62 62 fd 58 bc bf 68 	vfnmadd231pd 0x468(%rdi){1to8},%zmm0,%zmm31
    186a:	04 00 00 
    186d:	62 f1 fd 48 10 86 00 	vmovupd 0x985800(%rsi),%zmm0
    1874:	58 98 00 
    1877:	62 62 fd 58 bc 47 0c 	vfnmadd231pd 0x60(%rdi){1to8},%zmm0,%zmm24
    187e:	62 62 fd 58 bc 4f 2a 	vfnmadd231pd 0x150(%rdi){1to8},%zmm0,%zmm25
    1885:	62 62 fd 58 bc 57 2a 	vfnmadd231pd 0x150(%rdi){1to8},%zmm0,%zmm26
    188c:	62 62 fd 58 bc 5f 2c 	vfnmadd231pd 0x160(%rdi){1to8},%zmm0,%zmm27
    1893:	62 62 fd 58 b8 67 5c 	vfmadd231pd 0x2e0(%rdi){1to8},%zmm0,%zmm28
    189a:	62 62 fd 58 b8 6f 5c 	vfmadd231pd 0x2e0(%rdi){1to8},%zmm0,%zmm29
    18a1:	62 62 fd 58 b8 77 5e 	vfmadd231pd 0x2f0(%rdi){1to8},%zmm0,%zmm30
    18a8:	62 62 fd 58 bc bf 70 	vfnmadd231pd 0x470(%rdi){1to8},%zmm0,%zmm31
    18af:	04 00 00 
    18b2:	62 f1 fd 48 10 86 00 	vmovupd 0x9e3400(%rsi),%zmm0
    18b9:	34 9e 00 
    18bc:	62 62 fd 58 b8 47 0b 	vfmadd231pd 0x58(%rdi){1to8},%zmm0,%zmm24
    18c3:	62 62 fd 58 b8 4f 2b 	vfmadd231pd 0x158(%rdi){1to8},%zmm0,%zmm25
    18ca:	62 62 fd 58 b8 57 2d 	vfmadd231pd 0x168(%rdi){1to8},%zmm0,%zmm26
    18d1:	62 62 fd 58 b8 5f 29 	vfmadd231pd 0x148(%rdi){1to8},%zmm0,%zmm27
    18d8:	62 62 fd 58 bc 67 5d 	vfnmadd231pd 0x2e8(%rdi){1to8},%zmm0,%zmm28
    18df:	62 62 fd 58 b8 6f 5f 	vfmadd231pd 0x2f8(%rdi){1to8},%zmm0,%zmm29
    18e6:	62 62 fd 58 bc 77 5b 	vfnmadd231pd 0x2d8(%rdi){1to8},%zmm0,%zmm30
    18ed:	62 62 fd 58 b8 bf 78 	vfmadd231pd 0x478(%rdi){1to8},%zmm0,%zmm31
    18f4:	04 00 00 
    18f7:	62 f1 fd 48 10 86 00 	vmovupd 0xa41000(%rsi),%zmm0
    18fe:	10 a4 00 
    1901:	62 62 fd 58 bc 47 0c 	vfnmadd231pd 0x60(%rdi){1to8},%zmm0,%zmm24
    1908:	62 62 fd 58 bc 4f 2c 	vfnmadd231pd 0x160(%rdi){1to8},%zmm0,%zmm25
    190f:	62 62 fd 58 bc 57 2a 	vfnmadd231pd 0x150(%rdi){1to8},%zmm0,%zmm26
    1916:	62 62 fd 58 bc 5f 2a 	vfnmadd231pd 0x150(%rdi){1to8},%zmm0,%zmm27
    191d:	62 62 fd 58 b8 67 5e 	vfmadd231pd 0x2f0(%rdi){1to8},%zmm0,%zmm28
    1924:	62 62 fd 58 b8 6f 5c 	vfmadd231pd 0x2e0(%rdi){1to8},%zmm0,%zmm29
    192b:	62 62 fd 58 b8 77 5c 	vfmadd231pd 0x2e0(%rdi){1to8},%zmm0,%zmm30
    1932:	62 62 fd 58 b8 bf 80 	vfmadd231pd 0x480(%rdi){1to8},%zmm0,%zmm31
    1939:	04 00 00 
    193c:	62 f1 fd 48 10 86 00 	vmovupd 0xa9ec00(%rsi),%zmm0
    1943:	ec a9 00 
    1946:	62 62 fd 58 b8 47 0b 	vfmadd231pd 0x58(%rdi){1to8},%zmm0,%zmm24
    194d:	62 62 fd 58 b8 4f 2b 	vfmadd231pd 0x158(%rdi){1to8},%zmm0,%zmm25
    1954:	62 62 fd 58 b8 57 29 	vfmadd231pd 0x148(%rdi){1to8},%zmm0,%zmm26
    195b:	62 62 fd 58 b8 5f 2d 	vfmadd231pd 0x168(%rdi){1to8},%zmm0,%zmm27
    1962:	62 62 fd 58 bc 67 5d 	vfnmadd231pd 0x2e8(%rdi){1to8},%zmm0,%zmm28
    1969:	62 62 fd 58 bc 6f 5b 	vfnmadd231pd 0x2d8(%rdi){1to8},%zmm0,%zmm29
    1970:	62 62 fd 58 b8 77 5f 	vfmadd231pd 0x2f8(%rdi){1to8},%zmm0,%zmm30
    1977:	62 62 fd 58 b8 bf 78 	vfmadd231pd 0x478(%rdi){1to8},%zmm0,%zmm31
    197e:	04 00 00 
    1981:	62 f1 fd 48 10 86 00 	vmovupd 0xafc800(%rsi),%zmm0
    1988:	c8 af 00 
    198b:	62 62 fd 58 bc 47 0c 	vfnmadd231pd 0x60(%rdi){1to8},%zmm0,%zmm24
    1992:	62 62 fd 58 bc 4f 2a 	vfnmadd231pd 0x150(%rdi){1to8},%zmm0,%zmm25
    1999:	62 62 fd 58 bc 57 2c 	vfnmadd231pd 0x160(%rdi){1to8},%zmm0,%zmm26
    19a0:	62 62 fd 58 bc 5f 2a 	vfnmadd231pd 0x150(%rdi){1to8},%zmm0,%zmm27
    19a7:	62 62 fd 58 b8 67 5c 	vfmadd231pd 0x2e0(%rdi){1to8},%zmm0,%zmm28
    19ae:	62 62 fd 58 b8 6f 5e 	vfmadd231pd 0x2f0(%rdi){1to8},%zmm0,%zmm29
    19b5:	62 62 fd 58 b8 77 5c 	vfmadd231pd 0x2e0(%rdi){1to8},%zmm0,%zmm30
    19bc:	62 62 fd 58 bc bf 70 	vfnmadd231pd 0x470(%rdi){1to8},%zmm0,%zmm31
    19c3:	04 00 00 
    19c6:	62 f1 fd 48 10 86 00 	vmovupd 0xb5a400(%rsi),%zmm0
    19cd:	a4 b5 00 
    19d0:	62 62 fd 58 b8 47 0b 	vfmadd231pd 0x58(%rdi){1to8},%zmm0,%zmm24
    19d7:	62 62 fd 58 b8 4f 2d 	vfmadd231pd 0x168(%rdi){1to8},%zmm0,%zmm25
    19de:	62 62 fd 58 b8 57 29 	vfmadd231pd 0x148(%rdi){1to8},%zmm0,%zmm26
    19e5:	62 62 fd 58 b8 5f 2b 	vfmadd231pd 0x158(%rdi){1to8},%zmm0,%zmm27
    19ec:	62 62 fd 58 b8 67 5f 	vfmadd231pd 0x2f8(%rdi){1to8},%zmm0,%zmm28
    19f3:	62 62 fd 58 bc 6f 5b 	vfnmadd231pd 0x2d8(%rdi){1to8},%zmm0,%zmm29
    19fa:	62 62 fd 58 bc 77 5d 	vfnmadd231pd 0x2e8(%rdi){1to8},%zmm0,%zmm30
    1a01:	62 62 fd 58 b8 bf 88 	vfmadd231pd 0x488(%rdi){1to8},%zmm0,%zmm31
    1a08:	04 00 00 
    1a0b:	62 f1 fd 48 10 86 00 	vmovupd 0xbb8000(%rsi),%zmm0
    1a12:	80 bb 00 
    1a15:	62 62 fd 58 bc 47 0a 	vfnmadd231pd 0x50(%rdi){1to8},%zmm0,%zmm24
    1a1c:	62 62 fd 58 b8 4f 28 	vfmadd231pd 0x140(%rdi){1to8},%zmm0,%zmm25
    1a23:	62 62 fd 58 b8 57 28 	vfmadd231pd 0x140(%rdi){1to8},%zmm0,%zmm26
    1a2a:	62 62 fd 58 bc 5f 2e 	vfnmadd231pd 0x170(%rdi){1to8},%zmm0,%zmm27
    1a31:	62 62 fd 58 bc 67 5a 	vfnmadd231pd 0x2d0(%rdi){1to8},%zmm0,%zmm28
    1a38:	62 62 fd 58 bc 6f 5a 	vfnmadd231pd 0x2d0(%rdi){1to8},%zmm0,%zmm29
    1a3f:	62 62 fd 58 b8 77 60 	vfmadd231pd 0x300(%rdi){1to8},%zmm0,%zmm30
    1a46:	62 62 fd 58 bc bf 60 	vfnmadd231pd 0x460(%rdi){1to8},%zmm0,%zmm31
    1a4d:	04 00 00 
    1a50:	62 f1 fd 48 10 86 00 	vmovupd 0xc15c00(%rsi),%zmm0
    1a57:	5c c1 00 
    1a5a:	62 62 fd 58 bc 47 0a 	vfnmadd231pd 0x50(%rdi){1to8},%zmm0,%zmm24
    1a61:	62 62 fd 58 bc 4f 2e 	vfnmadd231pd 0x170(%rdi){1to8},%zmm0,%zmm25
    1a68:	62 62 fd 58 b8 57 28 	vfmadd231pd 0x140(%rdi){1to8},%zmm0,%zmm26
    1a6f:	62 62 fd 58 b8 5f 28 	vfmadd231pd 0x140(%rdi){1to8},%zmm0,%zmm27
    1a76:	62 62 fd 58 b8 67 60 	vfmadd231pd 0x300(%rdi){1to8},%zmm0,%zmm28
    1a7d:	62 62 fd 58 bc 6f 5a 	vfnmadd231pd 0x2d0(%rdi){1to8},%zmm0,%zmm29
    1a84:	62 62 fd 58 bc 77 5a 	vfnmadd231pd 0x2d0(%rdi){1to8},%zmm0,%zmm30
    1a8b:	62 62 fd 58 b8 bf 90 	vfmadd231pd 0x490(%rdi){1to8},%zmm0,%zmm31
    1a92:	04 00 00 
    1a95:	62 f1 fd 48 10 86 00 	vmovupd 0xc73800(%rsi),%zmm0
    1a9c:	38 c7 00 
    1a9f:	62 62 fd 58 b8 47 0b 	vfmadd231pd 0x58(%rdi){1to8},%zmm0,%zmm24
    1aa6:	62 62 fd 58 b8 4f 29 	vfmadd231pd 0x148(%rdi){1to8},%zmm0,%zmm25
    1aad:	62 62 fd 58 b8 57 2d 	vfmadd231pd 0x168(%rdi){1to8},%zmm0,%zmm26
    1ab4:	62 62 fd 58 b8 5f 2b 	vfmadd231pd 0x158(%rdi){1to8},%zmm0,%zmm27
    1abb:	62 62 fd 58 bc 67 5b 	vfnmadd231pd 0x2d8(%rdi){1to8},%zmm0,%zmm28
    1ac2:	62 62 fd 58 b8 6f 5f 	vfmadd231pd 0x2f8(%rdi){1to8},%zmm0,%zmm29
    1ac9:	62 62 fd 58 bc 77 5d 	vfnmadd231pd 0x2e8(%rdi){1to8},%zmm0,%zmm30
    1ad0:	62 62 fd 58 bc bf 68 	vfnmadd231pd 0x468(%rdi){1to8},%zmm0,%zmm31
    1ad7:	04 00 00 
    1ada:	62 f1 fd 48 10 86 00 	vmovupd 0xcd1400(%rsi),%zmm0
    1ae1:	14 cd 00 
    1ae4:	62 62 fd 58 b8 47 0b 	vfmadd231pd 0x58(%rdi){1to8},%zmm0,%zmm24
    1aeb:	62 62 fd 58 b8 4f 2d 	vfmadd231pd 0x168(%rdi){1to8},%zmm0,%zmm25
    1af2:	62 62 fd 58 b8 57 2b 	vfmadd231pd 0x158(%rdi){1to8},%zmm0,%zmm26
    1af9:	62 62 fd 58 b8 5f 29 	vfmadd231pd 0x148(%rdi){1to8},%zmm0,%zmm27
    1b00:	62 62 fd 58 b8 67 5f 	vfmadd231pd 0x2f8(%rdi){1to8},%zmm0,%zmm28
    1b07:	62 62 fd 58 bc 6f 5d 	vfnmadd231pd 0x2e8(%rdi){1to8},%zmm0,%zmm29
    1b0e:	62 62 fd 58 bc 77 5b 	vfnmadd231pd 0x2d8(%rdi){1to8},%zmm0,%zmm30
    1b15:	62 62 fd 58 b8 bf 88 	vfmadd231pd 0x488(%rdi){1to8},%zmm0,%zmm31
    1b1c:	04 00 00 
    1b1f:	62 f1 fd 48 10 86 00 	vmovupd 0xd2f000(%rsi),%zmm0
    1b26:	f0 d2 00 
    1b29:	62 62 fd 58 b8 47 0d 	vfmadd231pd 0x68(%rdi){1to8},%zmm0,%zmm24
    1b30:	62 62 fd 58 b8 4f 2f 	vfmadd231pd 0x178(%rdi){1to8},%zmm0,%zmm25
    1b37:	62 62 fd 58 bc 57 35 	vfnmadd231pd 0x1a8(%rdi){1to8},%zmm0,%zmm26
    1b3e:	62 62 fd 58 b8 5f 2f 	vfmadd231pd 0x178(%rdi){1to8},%zmm0,%zmm27
    1b45:	62 62 fd 58 bc 67 61 	vfnmadd231pd 0x308(%rdi){1to8},%zmm0,%zmm28
    1b4c:	62 62 fd 58 b8 6f 67 	vfmadd231pd 0x338(%rdi){1to8},%zmm0,%zmm29
    1b53:	62 62 fd 58 bc 77 61 	vfnmadd231pd 0x308(%rdi){1to8},%zmm0,%zmm30
    1b5a:	62 62 fd 58 b8 bf 98 	vfmadd231pd 0x498(%rdi){1to8},%zmm0,%zmm31
    1b61:	04 00 00 
    1b64:	62 f1 fd 48 10 86 00 	vmovupd 0xd8cc00(%rsi),%zmm0
    1b6b:	cc d8 00 
    1b6e:	62 62 fd 58 bc 47 0e 	vfnmadd231pd 0x70(%rdi){1to8},%zmm0,%zmm24
    1b75:	62 62 fd 58 bc 4f 30 	vfnmadd231pd 0x180(%rdi){1to8},%zmm0,%zmm25
    1b7c:	62 62 fd 58 b8 57 32 	vfmadd231pd 0x190(%rdi){1to8},%zmm0,%zmm26
    1b83:	62 62 fd 58 bc 5f 34 	vfnmadd231pd 0x1a0(%rdi){1to8},%zmm0,%zmm27
    1b8a:	62 62 fd 58 bc 67 62 	vfnmadd231pd 0x310(%rdi){1to8},%zmm0,%zmm28
    1b91:	62 62 fd 58 bc 6f 64 	vfnmadd231pd 0x320(%rdi){1to8},%zmm0,%zmm29
    1b98:	62 62 fd 58 b8 77 66 	vfmadd231pd 0x330(%rdi){1to8},%zmm0,%zmm30
    1b9f:	62 62 fd 58 b8 bf a0 	vfmadd231pd 0x4a0(%rdi){1to8},%zmm0,%zmm31
    1ba6:	04 00 00 
    1ba9:	62 f1 fd 48 10 86 00 	vmovupd 0xdea800(%rsi),%zmm0
    1bb0:	a8 de 00 
    1bb3:	62 62 fd 58 bc 47 0f 	vfnmadd231pd 0x78(%rdi){1to8},%zmm0,%zmm24
    1bba:	62 62 fd 58 bc 4f 31 	vfnmadd231pd 0x188(%rdi){1to8},%zmm0,%zmm25
    1bc1:	62 62 fd 58 bc 57 31 	vfnmadd231pd 0x188(%rdi){1to8},%zmm0,%zmm26
    1bc8:	62 62 fd 58 b8 5f 33 	vfmadd231pd 0x198(%rdi){1to8},%zmm0,%zmm27
    1bcf:	62 62 fd 58 b8 67 63 	vfmadd231pd 0x318(%rdi){1to8},%zmm0,%zmm28
    1bd6:	62 62 fd 58 b8 6f 63 	vfmadd231pd 0x318(%rdi){1to8},%zmm0,%zmm29
    1bdd:	62 62 fd 58 bc 77 65 	vfnmadd231pd 0x328(%rdi){1to8},%zmm0,%zmm30
    1be4:	62 62 fd 58 b8 bf a8 	vfmadd231pd 0x4a8(%rdi){1to8},%zmm0,%zmm31
    1beb:	04 00 00 
    1bee:	62 f1 fd 48 10 86 00 	vmovupd 0xe48400(%rsi),%zmm0
    1bf5:	84 e4 00 
    1bf8:	62 62 fd 58 bc 47 0e 	vfnmadd231pd 0x70(%rdi){1to8},%zmm0,%zmm24
    1bff:	62 62 fd 58 b8 4f 32 	vfmadd231pd 0x190(%rdi){1to8},%zmm0,%zmm25
    1c06:	62 62 fd 58 bc 57 34 	vfnmadd231pd 0x1a0(%rdi){1to8},%zmm0,%zmm26
    1c0d:	62 62 fd 58 bc 5f 30 	vfnmadd231pd 0x180(%rdi){1to8},%zmm0,%zmm27
    1c14:	62 62 fd 58 bc 67 64 	vfnmadd231pd 0x320(%rdi){1to8},%zmm0,%zmm28
    1c1b:	62 62 fd 58 b8 6f 66 	vfmadd231pd 0x330(%rdi){1to8},%zmm0,%zmm29
    1c22:	62 62 fd 58 bc 77 62 	vfnmadd231pd 0x310(%rdi){1to8},%zmm0,%zmm30
    1c29:	62 62 fd 58 b8 bf b0 	vfmadd231pd 0x4b0(%rdi){1to8},%zmm0,%zmm31
    1c30:	04 00 00 
    1c33:	62 f1 fd 48 10 86 00 	vmovupd 0xea6000(%rsi),%zmm0
    1c3a:	60 ea 00 
    1c3d:	62 62 fd 58 bc 47 0f 	vfnmadd231pd 0x78(%rdi){1to8},%zmm0,%zmm24
    1c44:	62 62 fd 58 b8 4f 33 	vfmadd231pd 0x198(%rdi){1to8},%zmm0,%zmm25
    1c4b:	62 62 fd 58 bc 57 31 	vfnmadd231pd 0x188(%rdi){1to8},%zmm0,%zmm26
    1c52:	62 62 fd 58 bc 5f 31 	vfnmadd231pd 0x188(%rdi){1to8},%zmm0,%zmm27
    1c59:	62 62 fd 58 bc 67 65 	vfnmadd231pd 0x328(%rdi){1to8},%zmm0,%zmm28
    1c60:	62 62 fd 58 b8 6f 63 	vfmadd231pd 0x318(%rdi){1to8},%zmm0,%zmm29
    1c67:	62 62 fd 58 b8 77 63 	vfmadd231pd 0x318(%rdi){1to8},%zmm0,%zmm30
    1c6e:	62 62 fd 58 b8 bf b8 	vfmadd231pd 0x4b8(%rdi){1to8},%zmm0,%zmm31
    1c75:	04 00 00 
    1c78:	62 f1 fd 48 10 86 00 	vmovupd 0xf03c00(%rsi),%zmm0
    1c7f:	3c f0 00 
    1c82:	62 62 fd 58 bc 47 0e 	vfnmadd231pd 0x70(%rdi){1to8},%zmm0,%zmm24
    1c89:	62 62 fd 58 b8 4f 32 	vfmadd231pd 0x190(%rdi){1to8},%zmm0,%zmm25
    1c90:	62 62 fd 58 bc 57 30 	vfnmadd231pd 0x180(%rdi){1to8},%zmm0,%zmm26
    1c97:	62 62 fd 58 bc 5f 34 	vfnmadd231pd 0x1a0(%rdi){1to8},%zmm0,%zmm27
    1c9e:	62 62 fd 58 bc 67 64 	vfnmadd231pd 0x320(%rdi){1to8},%zmm0,%zmm28
    1ca5:	62 62 fd 58 bc 6f 62 	vfnmadd231pd 0x310(%rdi){1to8},%zmm0,%zmm29
    1cac:	62 62 fd 58 b8 77 66 	vfmadd231pd 0x330(%rdi){1to8},%zmm0,%zmm30
    1cb3:	62 62 fd 58 b8 bf b0 	vfmadd231pd 0x4b0(%rdi){1to8},%zmm0,%zmm31
    1cba:	04 00 00 
    1cbd:	62 f1 fd 48 10 86 00 	vmovupd 0xf61800(%rsi),%zmm0
    1cc4:	18 f6 00 
    1cc7:	62 62 fd 58 bc 47 0f 	vfnmadd231pd 0x78(%rdi){1to8},%zmm0,%zmm24
    1cce:	62 62 fd 58 bc 4f 31 	vfnmadd231pd 0x188(%rdi){1to8},%zmm0,%zmm25
    1cd5:	62 62 fd 58 b8 57 33 	vfmadd231pd 0x198(%rdi){1to8},%zmm0,%zmm26
    1cdc:	62 62 fd 58 bc 5f 31 	vfnmadd231pd 0x188(%rdi){1to8},%zmm0,%zmm27
    1ce3:	62 62 fd 58 b8 67 63 	vfmadd231pd 0x318(%rdi){1to8},%zmm0,%zmm28
    1cea:	62 62 fd 58 bc 6f 65 	vfnmadd231pd 0x328(%rdi){1to8},%zmm0,%zmm29
    1cf1:	62 62 fd 58 b8 77 63 	vfmadd231pd 0x318(%rdi){1to8},%zmm0,%zmm30
    1cf8:	62 62 fd 58 b8 bf a8 	vfmadd231pd 0x4a8(%rdi){1to8},%zmm0,%zmm31
    1cff:	04 00 00 
    1d02:	62 f1 fd 48 10 86 00 	vmovupd 0xfbf400(%rsi),%zmm0
    1d09:	f4 fb 00 
    1d0c:	62 62 fd 58 bc 47 0e 	vfnmadd231pd 0x70(%rdi){1to8},%zmm0,%zmm24
    1d13:	62 62 fd 58 bc 4f 34 	vfnmadd231pd 0x1a0(%rdi){1to8},%zmm0,%zmm25
    1d1a:	62 62 fd 58 bc 57 30 	vfnmadd231pd 0x180(%rdi){1to8},%zmm0,%zmm26
    1d21:	62 62 fd 58 b8 5f 32 	vfmadd231pd 0x190(%rdi){1to8},%zmm0,%zmm27
    1d28:	62 62 fd 58 b8 67 66 	vfmadd231pd 0x330(%rdi){1to8},%zmm0,%zmm28
    1d2f:	62 62 fd 58 bc 6f 62 	vfnmadd231pd 0x310(%rdi){1to8},%zmm0,%zmm29
    1d36:	62 62 fd 58 bc 77 64 	vfnmadd231pd 0x320(%rdi){1to8},%zmm0,%zmm30
    1d3d:	62 62 fd 58 bc bf c0 	vfnmadd231pd 0x4c0(%rdi){1to8},%zmm0,%zmm31
    1d44:	04 00 00 
    1d47:	62 f1 fd 48 10 86 00 	vmovupd 0x101d000(%rsi),%zmm0
    1d4e:	d0 01 01 
    1d51:	62 62 fd 58 b8 47 0d 	vfmadd231pd 0x68(%rdi){1to8},%zmm0,%zmm24
    1d58:	62 62 fd 58 b8 4f 2f 	vfmadd231pd 0x178(%rdi){1to8},%zmm0,%zmm25
    1d5f:	62 62 fd 58 b8 57 2f 	vfmadd231pd 0x178(%rdi){1to8},%zmm0,%zmm26
    1d66:	62 62 fd 58 bc 5f 35 	vfnmadd231pd 0x1a8(%rdi){1to8},%zmm0,%zmm27
    1d6d:	62 62 fd 58 bc 67 61 	vfnmadd231pd 0x308(%rdi){1to8},%zmm0,%zmm28
    1d74:	62 62 fd 58 bc 6f 61 	vfnmadd231pd 0x308(%rdi){1to8},%zmm0,%zmm29
    1d7b:	62 62 fd 58 b8 77 67 	vfmadd231pd 0x338(%rdi){1to8},%zmm0,%zmm30
    1d82:	62 62 fd 58 b8 bf 98 	vfmadd231pd 0x498(%rdi){1to8},%zmm0,%zmm31
    1d89:	04 00 00 
    1d8c:	62 f1 fd 48 10 86 00 	vmovupd 0x107ac00(%rsi),%zmm0
    1d93:	ac 07 01 
    1d96:	62 62 fd 58 b8 47 0d 	vfmadd231pd 0x68(%rdi){1to8},%zmm0,%zmm24
    1d9d:	62 62 fd 58 bc 4f 35 	vfnmadd231pd 0x1a8(%rdi){1to8},%zmm0,%zmm25
    1da4:	62 62 fd 58 b8 57 2f 	vfmadd231pd 0x178(%rdi){1to8},%zmm0,%zmm26
    1dab:	62 62 fd 58 b8 5f 2f 	vfmadd231pd 0x178(%rdi){1to8},%zmm0,%zmm27
    1db2:	62 62 fd 58 b8 67 67 	vfmadd231pd 0x338(%rdi){1to8},%zmm0,%zmm28
    1db9:	62 62 fd 58 bc 6f 61 	vfnmadd231pd 0x308(%rdi){1to8},%zmm0,%zmm29
    1dc0:	62 62 fd 58 bc 77 61 	vfnmadd231pd 0x308(%rdi){1to8},%zmm0,%zmm30
    1dc7:	62 62 fd 58 bc bf c8 	vfnmadd231pd 0x4c8(%rdi){1to8},%zmm0,%zmm31
    1dce:	04 00 00 
    1dd1:	62 f1 fd 48 10 86 00 	vmovupd 0x10d8800(%rsi),%zmm0
    1dd8:	88 0d 01 
    1ddb:	62 62 fd 58 bc 47 0e 	vfnmadd231pd 0x70(%rdi){1to8},%zmm0,%zmm24
    1de2:	62 62 fd 58 bc 4f 30 	vfnmadd231pd 0x180(%rdi){1to8},%zmm0,%zmm25
    1de9:	62 62 fd 58 bc 57 34 	vfnmadd231pd 0x1a0(%rdi){1to8},%zmm0,%zmm26
    1df0:	62 62 fd 58 b8 5f 32 	vfmadd231pd 0x190(%rdi){1to8},%zmm0,%zmm27
    1df7:	62 62 fd 58 bc 67 62 	vfnmadd231pd 0x310(%rdi){1to8},%zmm0,%zmm28
    1dfe:	62 62 fd 58 b8 6f 66 	vfmadd231pd 0x330(%rdi){1to8},%zmm0,%zmm29
    1e05:	62 62 fd 58 bc 77 64 	vfnmadd231pd 0x320(%rdi){1to8},%zmm0,%zmm30
    1e0c:	62 62 fd 58 b8 bf a0 	vfmadd231pd 0x4a0(%rdi){1to8},%zmm0,%zmm31
    1e13:	04 00 00 
    1e16:	62 f1 fd 48 10 86 00 	vmovupd 0x1136400(%rsi),%zmm0
    1e1d:	64 13 01 
    1e20:	62 62 fd 58 bc 47 0e 	vfnmadd231pd 0x70(%rdi){1to8},%zmm0,%zmm24
    1e27:	62 62 fd 58 bc 4f 34 	vfnmadd231pd 0x1a0(%rdi){1to8},%zmm0,%zmm25
    1e2e:	62 62 fd 58 b8 57 32 	vfmadd231pd 0x190(%rdi){1to8},%zmm0,%zmm26
    1e35:	62 62 fd 58 bc 5f 30 	vfnmadd231pd 0x180(%rdi){1to8},%zmm0,%zmm27
    1e3c:	62 62 fd 58 b8 67 66 	vfmadd231pd 0x330(%rdi){1to8},%zmm0,%zmm28
    1e43:	62 62 fd 58 bc 6f 64 	vfnmadd231pd 0x320(%rdi){1to8},%zmm0,%zmm29
    1e4a:	62 62 fd 58 bc 77 62 	vfnmadd231pd 0x310(%rdi){1to8},%zmm0,%zmm30
    1e51:	62 62 fd 58 bc bf c0 	vfnmadd231pd 0x4c0(%rdi){1to8},%zmm0,%zmm31
    1e58:	04 00 00 
    1e5b:	62 f1 fd 48 10 86 00 	vmovupd 0x1194000(%rsi),%zmm0
    1e62:	40 19 01 
    1e65:	62 62 fd 58 b8 47 10 	vfmadd231pd 0x80(%rdi){1to8},%zmm0,%zmm24
    1e6c:	62 62 fd 58 b8 4f 36 	vfmadd231pd 0x1b0(%rdi){1to8},%zmm0,%zmm25
    1e73:	62 62 fd 58 bc 57 3c 	vfnmadd231pd 0x1e0(%rdi){1to8},%zmm0,%zmm26
    1e7a:	62 62 fd 58 b8 5f 36 	vfmadd231pd 0x1b0(%rdi){1to8},%zmm0,%zmm27
    1e81:	62 62 fd 58 bc 67 68 	vfnmadd231pd 0x340(%rdi){1to8},%zmm0,%zmm28
    1e88:	62 62 fd 58 b8 6f 6e 	vfmadd231pd 0x370(%rdi){1to8},%zmm0,%zmm29
    1e8f:	62 62 fd 58 bc 77 68 	vfnmadd231pd 0x340(%rdi){1to8},%zmm0,%zmm30
    1e96:	62 62 fd 58 b8 bf d0 	vfmadd231pd 0x4d0(%rdi){1to8},%zmm0,%zmm31
    1e9d:	04 00 00 
    1ea0:	62 f1 fd 48 10 86 00 	vmovupd 0x11f1c00(%rsi),%zmm0
    1ea7:	1c 1f 01 
    1eaa:	62 62 fd 58 bc 47 11 	vfnmadd231pd 0x88(%rdi){1to8},%zmm0,%zmm24
    1eb1:	62 62 fd 58 bc 4f 37 	vfnmadd231pd 0x1b8(%rdi){1to8},%zmm0,%zmm25
    1eb8:	62 62 fd 58 bc 57 39 	vfnmadd231pd 0x1c8(%rdi){1to8},%zmm0,%zmm26
    1ebf:	62 62 fd 58 bc 5f 3b 	vfnmadd231pd 0x1d8(%rdi){1to8},%zmm0,%zmm27
    1ec6:	62 62 fd 58 b8 67 69 	vfmadd231pd 0x348(%rdi){1to8},%zmm0,%zmm28
    1ecd:	62 62 fd 58 bc 6f 6b 	vfnmadd231pd 0x358(%rdi){1to8},%zmm0,%zmm29
    1ed4:	62 62 fd 58 b8 77 6d 	vfmadd231pd 0x368(%rdi){1to8},%zmm0,%zmm30
    1edb:	62 62 fd 58 b8 bf d8 	vfmadd231pd 0x4d8(%rdi){1to8},%zmm0,%zmm31
    1ee2:	04 00 00 
    1ee5:	62 f1 fd 48 10 86 00 	vmovupd 0x124f800(%rsi),%zmm0
    1eec:	f8 24 01 
    1eef:	62 62 fd 58 b8 47 12 	vfmadd231pd 0x90(%rdi){1to8},%zmm0,%zmm24
    1ef6:	62 62 fd 58 bc 4f 38 	vfnmadd231pd 0x1c0(%rdi){1to8},%zmm0,%zmm25
    1efd:	62 62 fd 58 bc 57 38 	vfnmadd231pd 0x1c0(%rdi){1to8},%zmm0,%zmm26
    1f04:	62 62 fd 58 b8 5f 3a 	vfmadd231pd 0x1d0(%rdi){1to8},%zmm0,%zmm27
    1f0b:	62 62 fd 58 b8 67 6a 	vfmadd231pd 0x350(%rdi){1to8},%zmm0,%zmm28
    1f12:	62 62 fd 58 b8 6f 6a 	vfmadd231pd 0x350(%rdi){1to8},%zmm0,%zmm29
    1f19:	62 62 fd 58 bc 77 6c 	vfnmadd231pd 0x360(%rdi){1to8},%zmm0,%zmm30
    1f20:	62 62 fd 58 bc bf e0 	vfnmadd231pd 0x4e0(%rdi){1to8},%zmm0,%zmm31
    1f27:	04 00 00 
    1f2a:	62 f1 fd 48 10 86 00 	vmovupd 0x12ad400(%rsi),%zmm0
    1f31:	d4 2a 01 
    1f34:	62 62 fd 58 bc 47 11 	vfnmadd231pd 0x88(%rdi){1to8},%zmm0,%zmm24
    1f3b:	62 62 fd 58 bc 4f 39 	vfnmadd231pd 0x1c8(%rdi){1to8},%zmm0,%zmm25
    1f42:	62 62 fd 58 bc 57 3b 	vfnmadd231pd 0x1d8(%rdi){1to8},%zmm0,%zmm26
    1f49:	62 62 fd 58 bc 5f 37 	vfnmadd231pd 0x1b8(%rdi){1to8},%zmm0,%zmm27
    1f50:	62 62 fd 58 bc 67 6b 	vfnmadd231pd 0x358(%rdi){1to8},%zmm0,%zmm28
    1f57:	62 62 fd 58 b8 6f 6d 	vfmadd231pd 0x368(%rdi){1to8},%zmm0,%zmm29
    1f5e:	62 62 fd 58 b8 77 69 	vfmadd231pd 0x348(%rdi){1to8},%zmm0,%zmm30
    1f65:	62 62 fd 58 b8 bf e8 	vfmadd231pd 0x4e8(%rdi){1to8},%zmm0,%zmm31
    1f6c:	04 00 00 
    1f6f:	62 f1 fd 48 10 86 00 	vmovupd 0x130b000(%rsi),%zmm0
    1f76:	b0 30 01 
    1f79:	62 62 fd 58 b8 47 12 	vfmadd231pd 0x90(%rdi){1to8},%zmm0,%zmm24
    1f80:	62 62 fd 58 b8 4f 3a 	vfmadd231pd 0x1d0(%rdi){1to8},%zmm0,%zmm25
    1f87:	62 62 fd 58 bc 57 38 	vfnmadd231pd 0x1c0(%rdi){1to8},%zmm0,%zmm26
    1f8e:	62 62 fd 58 bc 5f 38 	vfnmadd231pd 0x1c0(%rdi){1to8},%zmm0,%zmm27
    1f95:	62 62 fd 58 bc 67 6c 	vfnmadd231pd 0x360(%rdi){1to8},%zmm0,%zmm28
    1f9c:	62 62 fd 58 b8 6f 6a 	vfmadd231pd 0x350(%rdi){1to8},%zmm0,%zmm29
    1fa3:	62 62 fd 58 b8 77 6a 	vfmadd231pd 0x350(%rdi){1to8},%zmm0,%zmm30
    1faa:	62 62 fd 58 b8 bf f0 	vfmadd231pd 0x4f0(%rdi){1to8},%zmm0,%zmm31
    1fb1:	04 00 00 
    1fb4:	62 f1 fd 48 10 86 00 	vmovupd 0x1368c00(%rsi),%zmm0
    1fbb:	8c 36 01 
    1fbe:	62 62 fd 58 bc 47 11 	vfnmadd231pd 0x88(%rdi){1to8},%zmm0,%zmm24
    1fc5:	62 62 fd 58 bc 4f 39 	vfnmadd231pd 0x1c8(%rdi){1to8},%zmm0,%zmm25
    1fcc:	62 62 fd 58 bc 57 37 	vfnmadd231pd 0x1b8(%rdi){1to8},%zmm0,%zmm26
    1fd3:	62 62 fd 58 bc 5f 3b 	vfnmadd231pd 0x1d8(%rdi){1to8},%zmm0,%zmm27
    1fda:	62 62 fd 58 bc 67 6b 	vfnmadd231pd 0x358(%rdi){1to8},%zmm0,%zmm28
    1fe1:	62 62 fd 58 b8 6f 69 	vfmadd231pd 0x348(%rdi){1to8},%zmm0,%zmm29
    1fe8:	62 62 fd 58 b8 77 6d 	vfmadd231pd 0x368(%rdi){1to8},%zmm0,%zmm30
    1fef:	62 62 fd 58 b8 bf e8 	vfmadd231pd 0x4e8(%rdi){1to8},%zmm0,%zmm31
    1ff6:	04 00 00 
    1ff9:	62 f1 fd 48 10 86 00 	vmovupd 0x13c6800(%rsi),%zmm0
    2000:	68 3c 01 
    2003:	62 62 fd 58 b8 47 12 	vfmadd231pd 0x90(%rdi){1to8},%zmm0,%zmm24
    200a:	62 62 fd 58 bc 4f 38 	vfnmadd231pd 0x1c0(%rdi){1to8},%zmm0,%zmm25
    2011:	62 62 fd 58 b8 57 3a 	vfmadd231pd 0x1d0(%rdi){1to8},%zmm0,%zmm26
    2018:	62 62 fd 58 bc 5f 38 	vfnmadd231pd 0x1c0(%rdi){1to8},%zmm0,%zmm27
    201f:	62 62 fd 58 b8 67 6a 	vfmadd231pd 0x350(%rdi){1to8},%zmm0,%zmm28
    2026:	62 62 fd 58 bc 6f 6c 	vfnmadd231pd 0x360(%rdi){1to8},%zmm0,%zmm29
    202d:	62 62 fd 58 b8 77 6a 	vfmadd231pd 0x350(%rdi){1to8},%zmm0,%zmm30
    2034:	62 62 fd 58 bc bf e0 	vfnmadd231pd 0x4e0(%rdi){1to8},%zmm0,%zmm31
    203b:	04 00 00 
    203e:	62 f1 fd 48 10 86 00 	vmovupd 0x1424400(%rsi),%zmm0
    2045:	44 42 01 
    2048:	62 62 fd 58 bc 47 11 	vfnmadd231pd 0x88(%rdi){1to8},%zmm0,%zmm24
    204f:	62 62 fd 58 bc 4f 3b 	vfnmadd231pd 0x1d8(%rdi){1to8},%zmm0,%zmm25
    2056:	62 62 fd 58 bc 57 37 	vfnmadd231pd 0x1b8(%rdi){1to8},%zmm0,%zmm26
    205d:	62 62 fd 58 bc 5f 39 	vfnmadd231pd 0x1c8(%rdi){1to8},%zmm0,%zmm27
    2064:	62 62 fd 58 b8 67 6d 	vfmadd231pd 0x368(%rdi){1to8},%zmm0,%zmm28
    206b:	62 62 fd 58 b8 6f 69 	vfmadd231pd 0x348(%rdi){1to8},%zmm0,%zmm29
    2072:	62 62 fd 58 bc 77 6b 	vfnmadd231pd 0x358(%rdi){1to8},%zmm0,%zmm30
    2079:	62 62 fd 58 bc bf f8 	vfnmadd231pd 0x4f8(%rdi){1to8},%zmm0,%zmm31
    2080:	04 00 00 
    2083:	62 f1 fd 48 10 86 00 	vmovupd 0x1482000(%rsi),%zmm0
    208a:	20 48 01 
    208d:	62 62 fd 58 b8 47 10 	vfmadd231pd 0x80(%rdi){1to8},%zmm0,%zmm24
    2094:	62 62 fd 58 b8 4f 36 	vfmadd231pd 0x1b0(%rdi){1to8},%zmm0,%zmm25
    209b:	62 62 fd 58 b8 57 36 	vfmadd231pd 0x1b0(%rdi){1to8},%zmm0,%zmm26
    20a2:	62 62 fd 58 bc 5f 3c 	vfnmadd231pd 0x1e0(%rdi){1to8},%zmm0,%zmm27
    20a9:	62 62 fd 58 bc 67 68 	vfnmadd231pd 0x340(%rdi){1to8},%zmm0,%zmm28
    20b0:	62 62 fd 58 bc 6f 68 	vfnmadd231pd 0x340(%rdi){1to8},%zmm0,%zmm29
    20b7:	62 62 fd 58 b8 77 6e 	vfmadd231pd 0x370(%rdi){1to8},%zmm0,%zmm30
    20be:	62 62 fd 58 b8 bf d0 	vfmadd231pd 0x4d0(%rdi){1to8},%zmm0,%zmm31
    20c5:	04 00 00 
    20c8:	62 f1 fd 48 10 86 00 	vmovupd 0x14dfc00(%rsi),%zmm0
    20cf:	fc 4d 01 
    20d2:	62 62 fd 58 b8 47 10 	vfmadd231pd 0x80(%rdi){1to8},%zmm0,%zmm24
    20d9:	62 62 fd 58 bc 4f 3c 	vfnmadd231pd 0x1e0(%rdi){1to8},%zmm0,%zmm25
    20e0:	62 62 fd 58 b8 57 36 	vfmadd231pd 0x1b0(%rdi){1to8},%zmm0,%zmm26
    20e7:	62 62 fd 58 b8 5f 36 	vfmadd231pd 0x1b0(%rdi){1to8},%zmm0,%zmm27
    20ee:	62 62 fd 58 b8 67 6e 	vfmadd231pd 0x370(%rdi){1to8},%zmm0,%zmm28
    20f5:	62 62 fd 58 bc 6f 68 	vfnmadd231pd 0x340(%rdi){1to8},%zmm0,%zmm29
    20fc:	62 62 fd 58 bc 77 68 	vfnmadd231pd 0x340(%rdi){1to8},%zmm0,%zmm30
    2103:	62 62 fd 58 bc bf 00 	vfnmadd231pd 0x500(%rdi){1to8},%zmm0,%zmm31
    210a:	05 00 00 
    210d:	62 f1 fd 48 10 86 00 	vmovupd 0x153d800(%rsi),%zmm0
    2114:	d8 53 01 
    2117:	62 62 fd 58 bc 47 11 	vfnmadd231pd 0x88(%rdi){1to8},%zmm0,%zmm24
    211e:	62 62 fd 58 bc 4f 37 	vfnmadd231pd 0x1b8(%rdi){1to8},%zmm0,%zmm25
    2125:	62 62 fd 58 bc 57 3b 	vfnmadd231pd 0x1d8(%rdi){1to8},%zmm0,%zmm26
    212c:	62 62 fd 58 bc 5f 39 	vfnmadd231pd 0x1c8(%rdi){1to8},%zmm0,%zmm27
    2133:	62 62 fd 58 b8 67 69 	vfmadd231pd 0x348(%rdi){1to8},%zmm0,%zmm28
    213a:	62 62 fd 58 b8 6f 6d 	vfmadd231pd 0x368(%rdi){1to8},%zmm0,%zmm29
    2141:	62 62 fd 58 bc 77 6b 	vfnmadd231pd 0x358(%rdi){1to8},%zmm0,%zmm30
    2148:	62 62 fd 58 b8 bf d8 	vfmadd231pd 0x4d8(%rdi){1to8},%zmm0,%zmm31
    214f:	04 00 00 
    2152:	62 f1 fd 48 10 86 00 	vmovupd 0x159b400(%rsi),%zmm0
    2159:	b4 59 01 
    215c:	62 62 fd 58 bc 47 11 	vfnmadd231pd 0x88(%rdi){1to8},%zmm0,%zmm24
    2163:	62 62 fd 58 bc 4f 3b 	vfnmadd231pd 0x1d8(%rdi){1to8},%zmm0,%zmm25
    216a:	62 62 fd 58 bc 57 39 	vfnmadd231pd 0x1c8(%rdi){1to8},%zmm0,%zmm26
    2171:	62 62 fd 58 bc 5f 37 	vfnmadd231pd 0x1b8(%rdi){1to8},%zmm0,%zmm27
    2178:	62 62 fd 58 b8 67 6d 	vfmadd231pd 0x368(%rdi){1to8},%zmm0,%zmm28
    217f:	62 62 fd 58 bc 6f 6b 	vfnmadd231pd 0x358(%rdi){1to8},%zmm0,%zmm29
    2186:	62 62 fd 58 b8 77 69 	vfmadd231pd 0x348(%rdi){1to8},%zmm0,%zmm30
    218d:	62 62 fd 58 bc bf f8 	vfnmadd231pd 0x4f8(%rdi){1to8},%zmm0,%zmm31
    2194:	04 00 00 
    2197:	62 f1 fd 48 10 86 00 	vmovupd 0x15f9000(%rsi),%zmm0
    219e:	90 5f 01 
    21a1:	62 62 fd 58 bc 47 13 	vfnmadd231pd 0x98(%rdi){1to8},%zmm0,%zmm24
    21a8:	62 62 fd 58 bc 4f 3d 	vfnmadd231pd 0x1e8(%rdi){1to8},%zmm0,%zmm25
    21af:	62 62 fd 58 b8 57 3f 	vfmadd231pd 0x1f8(%rdi){1to8},%zmm0,%zmm26
    21b6:	62 62 fd 58 bc 5f 45 	vfnmadd231pd 0x228(%rdi){1to8},%zmm0,%zmm27
    21bd:	62 62 fd 58 b8 67 6f 	vfmadd231pd 0x378(%rdi){1to8},%zmm0,%zmm28
    21c4:	62 62 fd 58 bc 6f 71 	vfnmadd231pd 0x388(%rdi){1to8},%zmm0,%zmm29
    21cb:	62 62 fd 58 b8 77 77 	vfmadd231pd 0x3b8(%rdi){1to8},%zmm0,%zmm30
    21d2:	62 62 fd 58 bc bf 08 	vfnmadd231pd 0x508(%rdi){1to8},%zmm0,%zmm31
    21d9:	05 00 00 
    21dc:	62 f1 fd 48 10 86 00 	vmovupd 0x1656c00(%rsi),%zmm0
    21e3:	6c 65 01 
    21e6:	62 62 fd 58 b8 47 14 	vfmadd231pd 0xa0(%rdi){1to8},%zmm0,%zmm24
    21ed:	62 62 fd 58 bc 4f 3e 	vfnmadd231pd 0x1f0(%rdi){1to8},%zmm0,%zmm25
    21f4:	62 62 fd 58 b8 57 44 	vfmadd231pd 0x220(%rdi){1to8},%zmm0,%zmm26
    21fb:	62 62 fd 58 b8 5f 43 	vfmadd231pd 0x218(%rdi){1to8},%zmm0,%zmm27
    2202:	62 62 fd 58 b8 67 70 	vfmadd231pd 0x380(%rdi){1to8},%zmm0,%zmm28
    2209:	62 62 fd 58 bc 6f 76 	vfnmadd231pd 0x3b0(%rdi){1to8},%zmm0,%zmm29
    2210:	62 62 fd 58 bc 77 75 	vfnmadd231pd 0x3a8(%rdi){1to8},%zmm0,%zmm30
    2217:	62 62 fd 58 bc bf 10 	vfnmadd231pd 0x510(%rdi){1to8},%zmm0,%zmm31
    221e:	05 00 00 
    2221:	62 f1 fd 48 10 86 00 	vmovupd 0x16b4800(%rsi),%zmm0
    2228:	48 6b 01 
    222b:	62 62 fd 58 bc 47 13 	vfnmadd231pd 0x98(%rdi){1to8},%zmm0,%zmm24
    2232:	62 62 fd 58 b8 4f 3f 	vfmadd231pd 0x1f8(%rdi){1to8},%zmm0,%zmm25
    2239:	62 62 fd 58 bc 57 3d 	vfnmadd231pd 0x1e8(%rdi){1to8},%zmm0,%zmm26
    2240:	62 62 fd 58 bc 5f 45 	vfnmadd231pd 0x228(%rdi){1to8},%zmm0,%zmm27
    2247:	62 62 fd 58 bc 67 71 	vfnmadd231pd 0x388(%rdi){1to8},%zmm0,%zmm28
    224e:	62 62 fd 58 b8 6f 6f 	vfmadd231pd 0x378(%rdi){1to8},%zmm0,%zmm29
    2255:	62 62 fd 58 b8 77 77 	vfmadd231pd 0x3b8(%rdi){1to8},%zmm0,%zmm30
    225c:	62 62 fd 58 b8 bf 18 	vfmadd231pd 0x518(%rdi){1to8},%zmm0,%zmm31
    2263:	05 00 00 
    2266:	62 f1 fd 48 10 86 00 	vmovupd 0x1712400(%rsi),%zmm0
    226d:	24 71 01 
    2270:	62 62 fd 58 b8 47 15 	vfmadd231pd 0xa8(%rdi){1to8},%zmm0,%zmm24
    2277:	62 62 fd 58 bc 4f 40 	vfnmadd231pd 0x200(%rdi){1to8},%zmm0,%zmm25
    227e:	62 62 fd 58 b8 57 47 	vfmadd231pd 0x238(%rdi){1to8},%zmm0,%zmm26
    2285:	62 62 fd 58 b8 5f 42 	vfmadd231pd 0x210(%rdi){1to8},%zmm0,%zmm27
    228c:	62 62 fd 58 b8 67 72 	vfmadd231pd 0x390(%rdi){1to8},%zmm0,%zmm28
    2293:	62 62 fd 58 bc 6f 79 	vfnmadd231pd 0x3c8(%rdi){1to8},%zmm0,%zmm29
    229a:	62 62 fd 58 b8 77 74 	vfmadd231pd 0x3a0(%rdi){1to8},%zmm0,%zmm30
    22a1:	62 62 fd 58 bc bf 20 	vfnmadd231pd 0x520(%rdi){1to8},%zmm0,%zmm31
    22a8:	05 00 00 
    22ab:	62 f1 fd 48 10 86 00 	vmovupd 0x1770000(%rsi),%zmm0
    22b2:	00 77 01 
    22b5:	62 62 fd 58 b8 47 16 	vfmadd231pd 0xb0(%rdi){1to8},%zmm0,%zmm24
    22bc:	62 62 fd 58 bc 4f 41 	vfnmadd231pd 0x208(%rdi){1to8},%zmm0,%zmm25
    22c3:	62 62 fd 58 b8 57 48 	vfmadd231pd 0x240(%rdi){1to8},%zmm0,%zmm26
    22ca:	62 62 fd 58 b8 5f 46 	vfmadd231pd 0x230(%rdi){1to8},%zmm0,%zmm27
    22d1:	62 62 fd 58 b8 67 73 	vfmadd231pd 0x398(%rdi){1to8},%zmm0,%zmm28
    22d8:	62 62 fd 58 bc 6f 7a 	vfnmadd231pd 0x3d0(%rdi){1to8},%zmm0,%zmm29
    22df:	62 62 fd 58 b8 77 78 	vfmadd231pd 0x3c0(%rdi){1to8},%zmm0,%zmm30
    22e6:	62 62 fd 58 bc bf 28 	vfnmadd231pd 0x528(%rdi){1to8},%zmm0,%zmm31
    22ed:	05 00 00 
    22f0:	62 f1 fd 48 10 86 00 	vmovupd 0x17cdc00(%rsi),%zmm0
    22f7:	dc 7c 01 
    22fa:	62 62 fd 58 bc 47 13 	vfnmadd231pd 0x98(%rdi){1to8},%zmm0,%zmm24
    2301:	62 62 fd 58 b8 4f 3f 	vfmadd231pd 0x1f8(%rdi){1to8},%zmm0,%zmm25
    2308:	62 62 fd 58 bc 57 45 	vfnmadd231pd 0x228(%rdi){1to8},%zmm0,%zmm26
    230f:	62 62 fd 58 bc 5f 3d 	vfnmadd231pd 0x1e8(%rdi){1to8},%zmm0,%zmm27
    2316:	62 62 fd 58 bc 67 71 	vfnmadd231pd 0x388(%rdi){1to8},%zmm0,%zmm28
    231d:	62 62 fd 58 b8 6f 77 	vfmadd231pd 0x3b8(%rdi){1to8},%zmm0,%zmm29
    2324:	62 62 fd 58 b8 77 6f 	vfmadd231pd 0x378(%rdi){1to8},%zmm0,%zmm30
    232b:	62 62 fd 58 b8 bf 18 	vfmadd231pd 0x518(%rdi){1to8},%zmm0,%zmm31
    2332:	05 00 00 
    2335:	62 f1 fd 48 10 86 00 	vmovupd 0x182b800(%rsi),%zmm0
    233c:	b8 82 01 
    233f:	62 62 fd 58 b8 47 15 	vfmadd231pd 0xa8(%rdi){1to8},%zmm0,%zmm24
    2346:	62 62 fd 58 b8 4f 42 	vfmadd231pd 0x210(%rdi){1to8},%zmm0,%zmm25
    234d:	62 62 fd 58 b8 57 47 	vfmadd231pd 0x238(%rdi){1to8},%zmm0,%zmm26
    2354:	62 62 fd 58 bc 5f 40 	vfnmadd231pd 0x200(%rdi){1to8},%zmm0,%zmm27
    235b:	62 62 fd 58 b8 67 74 	vfmadd231pd 0x3a0(%rdi){1to8},%zmm0,%zmm28
    2362:	62 62 fd 58 bc 6f 79 	vfnmadd231pd 0x3c8(%rdi){1to8},%zmm0,%zmm29
    2369:	62 62 fd 58 b8 77 72 	vfmadd231pd 0x390(%rdi){1to8},%zmm0,%zmm30
    2370:	62 62 fd 58 b8 bf 30 	vfmadd231pd 0x530(%rdi){1to8},%zmm0,%zmm31
    2377:	05 00 00 
    237a:	62 f1 fd 48 10 86 00 	vmovupd 0x1889400(%rsi),%zmm0
    2381:	94 88 01 
    2384:	62 62 fd 58 b8 47 14 	vfmadd231pd 0xa0(%rdi){1to8},%zmm0,%zmm24
    238b:	62 62 fd 58 b8 4f 43 	vfmadd231pd 0x218(%rdi){1to8},%zmm0,%zmm25
    2392:	62 62 fd 58 bc 57 3e 	vfnmadd231pd 0x1f0(%rdi){1to8},%zmm0,%zmm26
    2399:	62 62 fd 58 b8 5f 44 	vfmadd231pd 0x220(%rdi){1to8},%zmm0,%zmm27
    23a0:	62 62 fd 58 bc 67 75 	vfnmadd231pd 0x3a8(%rdi){1to8},%zmm0,%zmm28
    23a7:	62 62 fd 58 b8 6f 70 	vfmadd231pd 0x380(%rdi){1to8},%zmm0,%zmm29
    23ae:	62 62 fd 58 bc 77 76 	vfnmadd231pd 0x3b0(%rdi){1to8},%zmm0,%zmm30
    23b5:	62 62 fd 58 bc bf 38 	vfnmadd231pd 0x538(%rdi){1to8},%zmm0,%zmm31
    23bc:	05 00 00 
    23bf:	62 f1 fd 48 10 86 00 	vmovupd 0x18e7000(%rsi),%zmm0
    23c6:	70 8e 01 
    23c9:	62 62 fd 58 bc 47 13 	vfnmadd231pd 0x98(%rdi){1to8},%zmm0,%zmm24
    23d0:	62 62 fd 58 bc 4f 3d 	vfnmadd231pd 0x1e8(%rdi){1to8},%zmm0,%zmm25
    23d7:	62 62 fd 58 bc 57 45 	vfnmadd231pd 0x228(%rdi){1to8},%zmm0,%zmm26
    23de:	62 62 fd 58 b8 5f 3f 	vfmadd231pd 0x1f8(%rdi){1to8},%zmm0,%zmm27
    23e5:	62 62 fd 58 b8 67 6f 	vfmadd231pd 0x378(%rdi){1to8},%zmm0,%zmm28
    23ec:	62 62 fd 58 b8 6f 77 	vfmadd231pd 0x3b8(%rdi){1to8},%zmm0,%zmm29
    23f3:	62 62 fd 58 bc 77 71 	vfnmadd231pd 0x388(%rdi){1to8},%zmm0,%zmm30
    23fa:	62 62 fd 58 bc bf 08 	vfnmadd231pd 0x508(%rdi){1to8},%zmm0,%zmm31
    2401:	05 00 00 
    2404:	62 f1 fd 48 10 86 00 	vmovupd 0x1944c00(%rsi),%zmm0
    240b:	4c 94 01 
    240e:	62 62 fd 58 b8 47 15 	vfmadd231pd 0xa8(%rdi){1to8},%zmm0,%zmm24
    2415:	62 62 fd 58 b8 4f 42 	vfmadd231pd 0x210(%rdi){1to8},%zmm0,%zmm25
    241c:	62 62 fd 58 bc 57 40 	vfnmadd231pd 0x200(%rdi){1to8},%zmm0,%zmm26
    2423:	62 62 fd 58 b8 5f 47 	vfmadd231pd 0x238(%rdi){1to8},%zmm0,%zmm27
    242a:	62 62 fd 58 b8 67 74 	vfmadd231pd 0x3a0(%rdi){1to8},%zmm0,%zmm28
    2431:	62 62 fd 58 b8 6f 72 	vfmadd231pd 0x390(%rdi){1to8},%zmm0,%zmm29
    2438:	62 62 fd 58 bc 77 79 	vfnmadd231pd 0x3c8(%rdi){1to8},%zmm0,%zmm30
    243f:	62 62 fd 58 b8 bf 30 	vfmadd231pd 0x530(%rdi){1to8},%zmm0,%zmm31
    2446:	05 00 00 
    2449:	62 f1 fd 48 10 86 00 	vmovupd 0x19a2800(%rsi),%zmm0
    2450:	28 9a 01 
    2453:	62 62 fd 58 b8 47 16 	vfmadd231pd 0xb0(%rdi){1to8},%zmm0,%zmm24
    245a:	62 62 fd 58 bc 4f 41 	vfnmadd231pd 0x208(%rdi){1to8},%zmm0,%zmm25
    2461:	62 62 fd 58 b8 57 46 	vfmadd231pd 0x230(%rdi){1to8},%zmm0,%zmm26
    2468:	62 62 fd 58 b8 5f 48 	vfmadd231pd 0x240(%rdi){1to8},%zmm0,%zmm27
    246f:	62 62 fd 58 b8 67 73 	vfmadd231pd 0x398(%rdi){1to8},%zmm0,%zmm28
    2476:	62 62 fd 58 b8 6f 78 	vfmadd231pd 0x3c0(%rdi){1to8},%zmm0,%zmm29
    247d:	62 62 fd 58 bc 77 7a 	vfnmadd231pd 0x3d0(%rdi){1to8},%zmm0,%zmm30
    2484:	62 62 fd 58 bc bf 28 	vfnmadd231pd 0x528(%rdi){1to8},%zmm0,%zmm31
    248b:	05 00 00 
    248e:	62 f1 fd 48 10 86 00 	vmovupd 0x1a00400(%rsi),%zmm0
    2495:	04 a0 01 
    2498:	62 62 fd 58 b8 47 14 	vfmadd231pd 0xa0(%rdi){1to8},%zmm0,%zmm24
    249f:	62 62 fd 58 b8 4f 44 	vfmadd231pd 0x220(%rdi){1to8},%zmm0,%zmm25
    24a6:	62 62 fd 58 bc 57 3e 	vfnmadd231pd 0x1f0(%rdi){1to8},%zmm0,%zmm26
    24ad:	62 62 fd 58 b8 5f 43 	vfmadd231pd 0x218(%rdi){1to8},%zmm0,%zmm27
    24b4:	62 62 fd 58 bc 67 76 	vfnmadd231pd 0x3b0(%rdi){1to8},%zmm0,%zmm28
    24bb:	62 62 fd 58 b8 6f 70 	vfmadd231pd 0x380(%rdi){1to8},%zmm0,%zmm29
    24c2:	62 62 fd 58 bc 77 75 	vfnmadd231pd 0x3a8(%rdi){1to8},%zmm0,%zmm30
    24c9:	62 62 fd 58 b8 bf 40 	vfmadd231pd 0x540(%rdi){1to8},%zmm0,%zmm31
    24d0:	05 00 00 
    24d3:	62 f1 fd 48 10 86 00 	vmovupd 0x1a5e000(%rsi),%zmm0
    24da:	e0 a5 01 
    24dd:	62 62 fd 58 b8 47 14 	vfmadd231pd 0xa0(%rdi){1to8},%zmm0,%zmm24
    24e4:	62 62 fd 58 b8 4f 44 	vfmadd231pd 0x220(%rdi){1to8},%zmm0,%zmm25
    24eb:	62 62 fd 58 b8 57 43 	vfmadd231pd 0x218(%rdi){1to8},%zmm0,%zmm26
    24f2:	62 62 fd 58 bc 5f 3e 	vfnmadd231pd 0x1f0(%rdi){1to8},%zmm0,%zmm27
    24f9:	62 62 fd 58 bc 67 76 	vfnmadd231pd 0x3b0(%rdi){1to8},%zmm0,%zmm28
    2500:	62 62 fd 58 bc 6f 75 	vfnmadd231pd 0x3a8(%rdi){1to8},%zmm0,%zmm29
    2507:	62 62 fd 58 b8 77 70 	vfmadd231pd 0x380(%rdi){1to8},%zmm0,%zmm30
    250e:	62 62 fd 58 b8 bf 40 	vfmadd231pd 0x540(%rdi){1to8},%zmm0,%zmm31
    2515:	05 00 00 
    2518:	62 f1 fd 48 10 86 00 	vmovupd 0x1abbc00(%rsi),%zmm0
    251f:	bc ab 01 
    2522:	62 62 fd 58 bc 47 13 	vfnmadd231pd 0x98(%rdi){1to8},%zmm0,%zmm24
    2529:	62 62 fd 58 bc 4f 45 	vfnmadd231pd 0x228(%rdi){1to8},%zmm0,%zmm25
    2530:	62 62 fd 58 b8 57 3f 	vfmadd231pd 0x1f8(%rdi){1to8},%zmm0,%zmm26
    2537:	62 62 fd 58 bc 5f 3d 	vfnmadd231pd 0x1e8(%rdi){1to8},%zmm0,%zmm27
    253e:	62 62 fd 58 b8 67 77 	vfmadd231pd 0x3b8(%rdi){1to8},%zmm0,%zmm28
    2545:	62 62 fd 58 bc 6f 71 	vfnmadd231pd 0x388(%rdi){1to8},%zmm0,%zmm29
    254c:	62 62 fd 58 b8 77 6f 	vfmadd231pd 0x378(%rdi){1to8},%zmm0,%zmm30
    2553:	62 62 fd 58 bc bf 48 	vfnmadd231pd 0x548(%rdi){1to8},%zmm0,%zmm31
    255a:	05 00 00 
    255d:	62 f1 fd 48 10 86 00 	vmovupd 0x1b19800(%rsi),%zmm0
    2564:	98 b1 01 
    2567:	62 62 fd 58 b8 47 16 	vfmadd231pd 0xb0(%rdi){1to8},%zmm0,%zmm24
    256e:	62 62 fd 58 b8 4f 46 	vfmadd231pd 0x230(%rdi){1to8},%zmm0,%zmm25
    2575:	62 62 fd 58 b8 57 48 	vfmadd231pd 0x240(%rdi){1to8},%zmm0,%zmm26
    257c:	62 62 fd 58 bc 5f 41 	vfnmadd231pd 0x208(%rdi){1to8},%zmm0,%zmm27
    2583:	62 62 fd 58 b8 67 78 	vfmadd231pd 0x3c0(%rdi){1to8},%zmm0,%zmm28
    258a:	62 62 fd 58 bc 6f 7a 	vfnmadd231pd 0x3d0(%rdi){1to8},%zmm0,%zmm29
    2591:	62 62 fd 58 b8 77 73 	vfmadd231pd 0x398(%rdi){1to8},%zmm0,%zmm30
    2598:	62 62 fd 58 bc bf 50 	vfnmadd231pd 0x550(%rdi){1to8},%zmm0,%zmm31
    259f:	05 00 00 
    25a2:	62 f1 fd 48 10 86 00 	vmovupd 0x1b77400(%rsi),%zmm0
    25a9:	74 b7 01 
    25ac:	62 62 fd 58 bc 47 13 	vfnmadd231pd 0x98(%rdi){1to8},%zmm0,%zmm24
    25b3:	62 62 fd 58 bc 4f 45 	vfnmadd231pd 0x228(%rdi){1to8},%zmm0,%zmm25
    25ba:	62 62 fd 58 bc 57 3d 	vfnmadd231pd 0x1e8(%rdi){1to8},%zmm0,%zmm26
    25c1:	62 62 fd 58 b8 5f 3f 	vfmadd231pd 0x1f8(%rdi){1to8},%zmm0,%zmm27
    25c8:	62 62 fd 58 b8 67 77 	vfmadd231pd 0x3b8(%rdi){1to8},%zmm0,%zmm28
    25cf:	62 62 fd 58 b8 6f 6f 	vfmadd231pd 0x378(%rdi){1to8},%zmm0,%zmm29
    25d6:	62 62 fd 58 bc 77 71 	vfnmadd231pd 0x388(%rdi){1to8},%zmm0,%zmm30
    25dd:	62 62 fd 58 bc bf 48 	vfnmadd231pd 0x548(%rdi){1to8},%zmm0,%zmm31
    25e4:	05 00 00 
    25e7:	62 f1 fd 48 10 86 00 	vmovupd 0x1bd5000(%rsi),%zmm0
    25ee:	50 bd 01 
    25f1:	62 62 fd 58 b8 47 16 	vfmadd231pd 0xb0(%rdi){1to8},%zmm0,%zmm24
    25f8:	62 62 fd 58 b8 4f 46 	vfmadd231pd 0x230(%rdi){1to8},%zmm0,%zmm25
    25ff:	62 62 fd 58 bc 57 41 	vfnmadd231pd 0x208(%rdi){1to8},%zmm0,%zmm26
    2606:	62 62 fd 58 b8 5f 48 	vfmadd231pd 0x240(%rdi){1to8},%zmm0,%zmm27
    260d:	62 62 fd 58 b8 67 78 	vfmadd231pd 0x3c0(%rdi){1to8},%zmm0,%zmm28
    2614:	62 62 fd 58 b8 6f 73 	vfmadd231pd 0x398(%rdi){1to8},%zmm0,%zmm29
    261b:	62 62 fd 58 bc 77 7a 	vfnmadd231pd 0x3d0(%rdi){1to8},%zmm0,%zmm30
    2622:	62 62 fd 58 bc bf 50 	vfnmadd231pd 0x550(%rdi){1to8},%zmm0,%zmm31
    2629:	05 00 00 
    262c:	62 f1 fd 48 10 86 00 	vmovupd 0x1c32c00(%rsi),%zmm0
    2633:	2c c3 01 
    2636:	62 62 fd 58 b8 47 14 	vfmadd231pd 0xa0(%rdi){1to8},%zmm0,%zmm24
    263d:	62 62 fd 58 b8 4f 43 	vfmadd231pd 0x218(%rdi){1to8},%zmm0,%zmm25
    2644:	62 62 fd 58 b8 57 44 	vfmadd231pd 0x220(%rdi){1to8},%zmm0,%zmm26
    264b:	62 62 fd 58 bc 5f 3e 	vfnmadd231pd 0x1f0(%rdi){1to8},%zmm0,%zmm27
    2652:	62 62 fd 58 bc 67 75 	vfnmadd231pd 0x3a8(%rdi){1to8},%zmm0,%zmm28
    2659:	62 62 fd 58 bc 6f 76 	vfnmadd231pd 0x3b0(%rdi){1to8},%zmm0,%zmm29
    2660:	62 62 fd 58 b8 77 70 	vfmadd231pd 0x380(%rdi){1to8},%zmm0,%zmm30
    2667:	62 62 fd 58 bc bf 38 	vfnmadd231pd 0x538(%rdi){1to8},%zmm0,%zmm31
    266e:	05 00 00 
    2671:	62 f1 fd 48 10 86 00 	vmovupd 0x1c90800(%rsi),%zmm0
    2678:	08 c9 01 
    267b:	62 62 fd 58 b8 47 15 	vfmadd231pd 0xa8(%rdi){1to8},%zmm0,%zmm24
    2682:	62 62 fd 58 bc 4f 40 	vfnmadd231pd 0x200(%rdi){1to8},%zmm0,%zmm25
    2689:	62 62 fd 58 b8 57 42 	vfmadd231pd 0x210(%rdi){1to8},%zmm0,%zmm26
    2690:	62 62 fd 58 b8 5f 47 	vfmadd231pd 0x238(%rdi){1to8},%zmm0,%zmm27
    2697:	62 62 fd 58 b8 67 72 	vfmadd231pd 0x390(%rdi){1to8},%zmm0,%zmm28
    269e:	62 62 fd 58 b8 6f 74 	vfmadd231pd 0x3a0(%rdi){1to8},%zmm0,%zmm29
    26a5:	62 62 fd 58 bc 77 79 	vfnmadd231pd 0x3c8(%rdi){1to8},%zmm0,%zmm30
    26ac:	62 62 fd 58 bc bf 20 	vfnmadd231pd 0x520(%rdi){1to8},%zmm0,%zmm31
    26b3:	05 00 00 
    26b6:	62 f1 fd 48 10 86 00 	vmovupd 0x1cee400(%rsi),%zmm0
    26bd:	e4 ce 01 
    26c0:	62 62 fd 58 b8 47 14 	vfmadd231pd 0xa0(%rdi){1to8},%zmm0,%zmm24
    26c7:	62 62 fd 58 bc 4f 3e 	vfnmadd231pd 0x1f0(%rdi){1to8},%zmm0,%zmm25
    26ce:	62 62 fd 58 b8 57 43 	vfmadd231pd 0x218(%rdi){1to8},%zmm0,%zmm26
    26d5:	62 62 fd 58 b8 5f 44 	vfmadd231pd 0x220(%rdi){1to8},%zmm0,%zmm27
    26dc:	62 62 fd 58 b8 67 70 	vfmadd231pd 0x380(%rdi){1to8},%zmm0,%zmm28
    26e3:	62 62 fd 58 bc 6f 75 	vfnmadd231pd 0x3a8(%rdi){1to8},%zmm0,%zmm29
    26ea:	62 62 fd 58 bc 77 76 	vfnmadd231pd 0x3b0(%rdi){1to8},%zmm0,%zmm30
    26f1:	62 62 fd 58 bc bf 10 	vfnmadd231pd 0x510(%rdi){1to8},%zmm0,%zmm31
    26f8:	05 00 00 
    26fb:	62 f1 fd 48 10 86 00 	vmovupd 0x1d4c000(%rsi),%zmm0
    2702:	c0 d4 01 
    2705:	62 62 fd 58 b8 47 15 	vfmadd231pd 0xa8(%rdi){1to8},%zmm0,%zmm24
    270c:	62 62 fd 58 b8 4f 47 	vfmadd231pd 0x238(%rdi){1to8},%zmm0,%zmm25
    2713:	62 62 fd 58 bc 57 40 	vfnmadd231pd 0x200(%rdi){1to8},%zmm0,%zmm26
    271a:	62 62 fd 58 b8 5f 42 	vfmadd231pd 0x210(%rdi){1to8},%zmm0,%zmm27
    2721:	62 62 fd 58 bc 67 79 	vfnmadd231pd 0x3c8(%rdi){1to8},%zmm0,%zmm28
    2728:	62 62 fd 58 b8 6f 72 	vfmadd231pd 0x390(%rdi){1to8},%zmm0,%zmm29
    272f:	62 62 fd 58 b8 77 74 	vfmadd231pd 0x3a0(%rdi){1to8},%zmm0,%zmm30
    2736:	62 62 fd 58 b8 bf 58 	vfmadd231pd 0x558(%rdi){1to8},%zmm0,%zmm31
    273d:	05 00 00 
    2740:	62 f1 fd 48 10 86 00 	vmovupd 0x1da9c00(%rsi),%zmm0
    2747:	9c da 01 
    274a:	62 62 fd 58 b8 47 16 	vfmadd231pd 0xb0(%rdi){1to8},%zmm0,%zmm24
    2751:	62 62 fd 58 b8 4f 48 	vfmadd231pd 0x240(%rdi){1to8},%zmm0,%zmm25
    2758:	62 62 fd 58 bc 57 41 	vfnmadd231pd 0x208(%rdi){1to8},%zmm0,%zmm26
    275f:	62 62 fd 58 b8 5f 46 	vfmadd231pd 0x230(%rdi){1to8},%zmm0,%zmm27
    2766:	62 62 fd 58 bc 67 7a 	vfnmadd231pd 0x3d0(%rdi){1to8},%zmm0,%zmm28
    276d:	62 62 fd 58 b8 6f 73 	vfmadd231pd 0x398(%rdi){1to8},%zmm0,%zmm29
    2774:	62 62 fd 58 b8 77 78 	vfmadd231pd 0x3c0(%rdi){1to8},%zmm0,%zmm30
    277b:	62 62 fd 58 b8 bf 60 	vfmadd231pd 0x560(%rdi){1to8},%zmm0,%zmm31
    2782:	05 00 00 
    2785:	62 f1 fd 48 10 86 00 	vmovupd 0x1e07800(%rsi),%zmm0
    278c:	78 e0 01 
    278f:	62 62 fd 58 b8 47 15 	vfmadd231pd 0xa8(%rdi){1to8},%zmm0,%zmm24
    2796:	62 62 fd 58 b8 4f 47 	vfmadd231pd 0x238(%rdi){1to8},%zmm0,%zmm25
    279d:	62 62 fd 58 b8 57 42 	vfmadd231pd 0x210(%rdi){1to8},%zmm0,%zmm26
    27a4:	62 62 fd 58 bc 5f 40 	vfnmadd231pd 0x200(%rdi){1to8},%zmm0,%zmm27
    27ab:	62 62 fd 58 bc 67 79 	vfnmadd231pd 0x3c8(%rdi){1to8},%zmm0,%zmm28
    27b2:	62 62 fd 58 b8 6f 74 	vfmadd231pd 0x3a0(%rdi){1to8},%zmm0,%zmm29
    27b9:	62 62 fd 58 b8 77 72 	vfmadd231pd 0x390(%rdi){1to8},%zmm0,%zmm30
    27c0:	62 62 fd 58 b8 bf 58 	vfmadd231pd 0x558(%rdi){1to8},%zmm0,%zmm31
    27c7:	05 00 00 
    27ca:	62 f1 fd 48 10 86 00 	vmovupd 0x1e65400(%rsi),%zmm0
    27d1:	54 e6 01 
    27d4:	62 62 fd 58 b8 47 16 	vfmadd231pd 0xb0(%rdi){1to8},%zmm0,%zmm24
    27db:	62 62 fd 58 b8 4f 48 	vfmadd231pd 0x240(%rdi){1to8},%zmm0,%zmm25
    27e2:	62 62 fd 58 b8 57 46 	vfmadd231pd 0x230(%rdi){1to8},%zmm0,%zmm26
    27e9:	62 62 fd 58 bc 5f 41 	vfnmadd231pd 0x208(%rdi){1to8},%zmm0,%zmm27
    27f0:	62 62 fd 58 bc 67 7a 	vfnmadd231pd 0x3d0(%rdi){1to8},%zmm0,%zmm28
    27f7:	62 62 fd 58 b8 6f 78 	vfmadd231pd 0x3c0(%rdi){1to8},%zmm0,%zmm29
    27fe:	62 62 fd 58 b8 77 73 	vfmadd231pd 0x398(%rdi){1to8},%zmm0,%zmm30
    2805:	62 62 fd 58 b8 bf 60 	vfmadd231pd 0x560(%rdi){1to8},%zmm0,%zmm31
    280c:	05 00 00 
    280f:	62 61 fd 48 2b 02    	vmovntpd %zmm24,(%rdx)
    2815:	62 61 fd 48 2b 8a 00 	vmovntpd %zmm25,0x5dc00(%rdx)
    281c:	dc 05 00 
    281f:	62 61 fd 48 2b 92 00 	vmovntpd %zmm26,0xbb800(%rdx)
    2826:	b8 0b 00 
    2829:	62 61 fd 48 2b 9a 00 	vmovntpd %zmm27,0x119400(%rdx)
    2830:	94 11 00 
    2833:	62 61 fd 48 2b a2 00 	vmovntpd %zmm28,0x177000(%rdx)
    283a:	70 17 00 
    283d:	62 61 fd 48 2b aa 00 	vmovntpd %zmm29,0x1d4c00(%rdx)
    2844:	4c 1d 00 
    2847:	62 61 fd 48 2b b2 00 	vmovntpd %zmm30,0x232800(%rdx)
    284e:	28 23 00 
    2851:	62 61 fd 48 2b ba 00 	vmovntpd %zmm31,0x290400(%rdx)
    2858:	04 29 00 
    285b:	62 01 3d 40 ef c0    	vpxord %zmm24,%zmm24,%zmm24
    2861:	62 01 35 40 ef c9    	vpxord %zmm25,%zmm25,%zmm25
    2867:	62 01 2d 40 ef d2    	vpxord %zmm26,%zmm26,%zmm26
    286d:	62 01 25 40 ef db    	vpxord %zmm27,%zmm27,%zmm27
    2873:	62 01 1d 40 ef e4    	vpxord %zmm28,%zmm28,%zmm28
    2879:	62 01 15 40 ef ed    	vpxord %zmm29,%zmm29,%zmm29
    287f:	62 01 0d 40 ef f6    	vpxord %zmm30,%zmm30,%zmm30
    2885:	62 01 05 40 ef ff    	vpxord %zmm31,%zmm31,%zmm31
    288b:	62 f1 fd 48 10 06    	vmovupd (%rsi),%zmm0
    2891:	62 62 fd 58 b8 47 7b 	vfmadd231pd 0x3d8(%rdi){1to8},%zmm0,%zmm24
    2898:	62 62 fd 58 b8 4f 7b 	vfmadd231pd 0x3d8(%rdi){1to8},%zmm0,%zmm25
    289f:	62 62 fd 58 bc 97 68 	vfnmadd231pd 0x568(%rdi){1to8},%zmm0,%zmm26
    28a6:	05 00 00 
    28a9:	62 62 fd 58 bc 9f 68 	vfnmadd231pd 0x568(%rdi){1to8},%zmm0,%zmm27
    28b0:	05 00 00 
    28b3:	62 62 fd 58 bc a7 68 	vfnmadd231pd 0x568(%rdi){1to8},%zmm0,%zmm28
    28ba:	05 00 00 
    28bd:	62 62 fd 58 bc af 68 	vfnmadd231pd 0x568(%rdi){1to8},%zmm0,%zmm29
    28c4:	05 00 00 
    28c7:	62 62 fd 58 bc b7 68 	vfnmadd231pd 0x568(%rdi){1to8},%zmm0,%zmm30
    28ce:	05 00 00 
    28d1:	62 62 fd 58 bc bf 68 	vfnmadd231pd 0x568(%rdi){1to8},%zmm0,%zmm31
    28d8:	05 00 00 
    28db:	62 f1 fd 48 10 86 00 	vmovupd 0x5dc00(%rsi),%zmm0
    28e2:	dc 05 00 
    28e5:	62 62 fd 58 b8 47 7d 	vfmadd231pd 0x3e8(%rdi){1to8},%zmm0,%zmm24
    28ec:	62 62 fd 58 bc 4f 7c 	vfnmadd231pd 0x3e0(%rdi){1to8},%zmm0,%zmm25
    28f3:	62 62 fd 58 b8 97 70 	vfmadd231pd 0x570(%rdi){1to8},%zmm0,%zmm26
    28fa:	05 00 00 
    28fd:	62 62 fd 58 bc 9f 80 	vfnmadd231pd 0x580(%rdi){1to8},%zmm0,%zmm27
    2904:	05 00 00 
    2907:	62 62 fd 58 b8 a7 78 	vfmadd231pd 0x578(%rdi){1to8},%zmm0,%zmm28
    290e:	05 00 00 
    2911:	62 62 fd 58 b8 af 70 	vfmadd231pd 0x570(%rdi){1to8},%zmm0,%zmm29
    2918:	05 00 00 
    291b:	62 62 fd 58 bc b7 80 	vfnmadd231pd 0x580(%rdi){1to8},%zmm0,%zmm30
    2922:	05 00 00 
    2925:	62 62 fd 58 b8 bf 78 	vfmadd231pd 0x578(%rdi){1to8},%zmm0,%zmm31
    292c:	05 00 00 
    292f:	62 f1 fd 48 10 86 00 	vmovupd 0xbb800(%rsi),%zmm0
    2936:	b8 0b 00 
    2939:	62 62 fd 58 bc 47 7c 	vfnmadd231pd 0x3e0(%rdi){1to8},%zmm0,%zmm24
    2940:	62 62 fd 58 bc 4f 7c 	vfnmadd231pd 0x3e0(%rdi){1to8},%zmm0,%zmm25
    2947:	62 62 fd 58 b8 97 78 	vfmadd231pd 0x578(%rdi){1to8},%zmm0,%zmm26
    294e:	05 00 00 
    2951:	62 62 fd 58 b8 9f 78 	vfmadd231pd 0x578(%rdi){1to8},%zmm0,%zmm27
    2958:	05 00 00 
    295b:	62 62 fd 58 bc a7 80 	vfnmadd231pd 0x580(%rdi){1to8},%zmm0,%zmm28
    2962:	05 00 00 
    2965:	62 62 fd 58 bc af 80 	vfnmadd231pd 0x580(%rdi){1to8},%zmm0,%zmm29
    296c:	05 00 00 
    296f:	62 62 fd 58 b8 b7 70 	vfmadd231pd 0x570(%rdi){1to8},%zmm0,%zmm30
    2976:	05 00 00 
    2979:	62 62 fd 58 b8 bf 70 	vfmadd231pd 0x570(%rdi){1to8},%zmm0,%zmm31
    2980:	05 00 00 
    2983:	62 f1 fd 48 10 86 00 	vmovupd 0x119400(%rsi),%zmm0
    298a:	94 11 00 
    298d:	62 62 fd 58 bc 47 7c 	vfnmadd231pd 0x3e0(%rdi){1to8},%zmm0,%zmm24
    2994:	62 62 fd 58 b8 4f 7d 	vfmadd231pd 0x3e8(%rdi){1to8},%zmm0,%zmm25
    299b:	62 62 fd 58 bc 97 80 	vfnmadd231pd 0x580(%rdi){1to8},%zmm0,%zmm26
    29a2:	05 00 00 
    29a5:	62 62 fd 58 b8 9f 70 	vfmadd231pd 0x570(%rdi){1to8},%zmm0,%zmm27
    29ac:	05 00 00 
    29af:	62 62 fd 58 b8 a7 70 	vfmadd231pd 0x570(%rdi){1to8},%zmm0,%zmm28
    29b6:	05 00 00 
    29b9:	62 62 fd 58 b8 af 78 	vfmadd231pd 0x578(%rdi){1to8},%zmm0,%zmm29
    29c0:	05 00 00 
    29c3:	62 62 fd 58 b8 b7 78 	vfmadd231pd 0x578(%rdi){1to8},%zmm0,%zmm30
    29ca:	05 00 00 
    29cd:	62 62 fd 58 bc bf 80 	vfnmadd231pd 0x580(%rdi){1to8},%zmm0,%zmm31
    29d4:	05 00 00 
    29d7:	62 f1 fd 48 10 86 00 	vmovupd 0x177000(%rsi),%zmm0
    29de:	70 17 00 
    29e1:	62 62 fd 58 b8 47 7e 	vfmadd231pd 0x3f0(%rdi){1to8},%zmm0,%zmm24
    29e8:	62 62 fd 58 b8 4f 7e 	vfmadd231pd 0x3f0(%rdi){1to8},%zmm0,%zmm25
    29ef:	62 62 fd 58 b8 97 88 	vfmadd231pd 0x588(%rdi){1to8},%zmm0,%zmm26
    29f6:	05 00 00 
    29f9:	62 62 fd 58 b8 9f 88 	vfmadd231pd 0x588(%rdi){1to8},%zmm0,%zmm27
    2a00:	05 00 00 
    2a03:	62 62 fd 58 b8 a7 88 	vfmadd231pd 0x588(%rdi){1to8},%zmm0,%zmm28
    2a0a:	05 00 00 
    2a0d:	62 62 fd 58 b8 af 88 	vfmadd231pd 0x588(%rdi){1to8},%zmm0,%zmm29
    2a14:	05 00 00 
    2a17:	62 62 fd 58 b8 b7 88 	vfmadd231pd 0x588(%rdi){1to8},%zmm0,%zmm30
    2a1e:	05 00 00 
    2a21:	62 62 fd 58 b8 bf 88 	vfmadd231pd 0x588(%rdi){1to8},%zmm0,%zmm31
    2a28:	05 00 00 
    2a2b:	62 f1 fd 48 10 86 00 	vmovupd 0x1d4c00(%rsi),%zmm0
    2a32:	4c 1d 00 
    2a35:	62 62 fd 58 bc 87 00 	vfnmadd231pd 0x400(%rdi){1to8},%zmm0,%zmm24
    2a3c:	04 00 00 
    2a3f:	62 62 fd 58 b8 4f 7f 	vfmadd231pd 0x3f8(%rdi){1to8},%zmm0,%zmm25
    2a46:	62 62 fd 58 b8 97 90 	vfmadd231pd 0x590(%rdi){1to8},%zmm0,%zmm26
    2a4d:	05 00 00 
    2a50:	62 62 fd 58 b8 9f a0 	vfmadd231pd 0x5a0(%rdi){1to8},%zmm0,%zmm27
    2a57:	05 00 00 
    2a5a:	62 62 fd 58 bc a7 98 	vfnmadd231pd 0x598(%rdi){1to8},%zmm0,%zmm28
    2a61:	05 00 00 
    2a64:	62 62 fd 58 b8 af 90 	vfmadd231pd 0x590(%rdi){1to8},%zmm0,%zmm29
    2a6b:	05 00 00 
    2a6e:	62 62 fd 58 b8 b7 a0 	vfmadd231pd 0x5a0(%rdi){1to8},%zmm0,%zmm30
    2a75:	05 00 00 
    2a78:	62 62 fd 58 bc bf 98 	vfnmadd231pd 0x598(%rdi){1to8},%zmm0,%zmm31
    2a7f:	05 00 00 
    2a82:	62 f1 fd 48 10 86 00 	vmovupd 0x232800(%rsi),%zmm0
    2a89:	28 23 00 
    2a8c:	62 62 fd 58 b8 47 7f 	vfmadd231pd 0x3f8(%rdi){1to8},%zmm0,%zmm24
    2a93:	62 62 fd 58 b8 4f 7f 	vfmadd231pd 0x3f8(%rdi){1to8},%zmm0,%zmm25
    2a9a:	62 62 fd 58 bc 97 98 	vfnmadd231pd 0x598(%rdi){1to8},%zmm0,%zmm26
    2aa1:	05 00 00 
    2aa4:	62 62 fd 58 bc 9f 98 	vfnmadd231pd 0x598(%rdi){1to8},%zmm0,%zmm27
    2aab:	05 00 00 
    2aae:	62 62 fd 58 b8 a7 a0 	vfmadd231pd 0x5a0(%rdi){1to8},%zmm0,%zmm28
    2ab5:	05 00 00 
    2ab8:	62 62 fd 58 b8 af a0 	vfmadd231pd 0x5a0(%rdi){1to8},%zmm0,%zmm29
    2abf:	05 00 00 
    2ac2:	62 62 fd 58 b8 b7 90 	vfmadd231pd 0x590(%rdi){1to8},%zmm0,%zmm30
    2ac9:	05 00 00 
    2acc:	62 62 fd 58 b8 bf 90 	vfmadd231pd 0x590(%rdi){1to8},%zmm0,%zmm31
    2ad3:	05 00 00 
    2ad6:	62 f1 fd 48 10 86 00 	vmovupd 0x290400(%rsi),%zmm0
    2add:	04 29 00 
    2ae0:	62 62 fd 58 b8 47 7f 	vfmadd231pd 0x3f8(%rdi){1to8},%zmm0,%zmm24
    2ae7:	62 62 fd 58 bc 8f 00 	vfnmadd231pd 0x400(%rdi){1to8},%zmm0,%zmm25
    2aee:	04 00 00 
    2af1:	62 62 fd 58 b8 97 a0 	vfmadd231pd 0x5a0(%rdi){1to8},%zmm0,%zmm26
    2af8:	05 00 00 
    2afb:	62 62 fd 58 b8 9f 90 	vfmadd231pd 0x590(%rdi){1to8},%zmm0,%zmm27
    2b02:	05 00 00 
    2b05:	62 62 fd 58 b8 a7 90 	vfmadd231pd 0x590(%rdi){1to8},%zmm0,%zmm28
    2b0c:	05 00 00 
    2b0f:	62 62 fd 58 bc af 98 	vfnmadd231pd 0x598(%rdi){1to8},%zmm0,%zmm29
    2b16:	05 00 00 
    2b19:	62 62 fd 58 bc b7 98 	vfnmadd231pd 0x598(%rdi){1to8},%zmm0,%zmm30
    2b20:	05 00 00 
    2b23:	62 62 fd 58 b8 bf a0 	vfmadd231pd 0x5a0(%rdi){1to8},%zmm0,%zmm31
    2b2a:	05 00 00 
    2b2d:	62 f1 fd 48 10 86 00 	vmovupd 0x2ee000(%rsi),%zmm0
    2b34:	e0 2e 00 
    2b37:	62 62 fd 58 bc 87 08 	vfnmadd231pd 0x408(%rdi){1to8},%zmm0,%zmm24
    2b3e:	04 00 00 
    2b41:	62 62 fd 58 bc 8f 08 	vfnmadd231pd 0x408(%rdi){1to8},%zmm0,%zmm25
    2b48:	04 00 00 
    2b4b:	62 62 fd 58 bc 97 a8 	vfnmadd231pd 0x5a8(%rdi){1to8},%zmm0,%zmm26
    2b52:	05 00 00 
    2b55:	62 62 fd 58 bc 9f a8 	vfnmadd231pd 0x5a8(%rdi){1to8},%zmm0,%zmm27
    2b5c:	05 00 00 
    2b5f:	62 62 fd 58 bc a7 a8 	vfnmadd231pd 0x5a8(%rdi){1to8},%zmm0,%zmm28
    2b66:	05 00 00 
    2b69:	62 62 fd 58 bc af a8 	vfnmadd231pd 0x5a8(%rdi){1to8},%zmm0,%zmm29
    2b70:	05 00 00 
    2b73:	62 62 fd 58 bc b7 a8 	vfnmadd231pd 0x5a8(%rdi){1to8},%zmm0,%zmm30
    2b7a:	05 00 00 
    2b7d:	62 62 fd 58 bc bf a8 	vfnmadd231pd 0x5a8(%rdi){1to8},%zmm0,%zmm31
    2b84:	05 00 00 
    2b87:	62 f1 fd 48 10 86 00 	vmovupd 0x34bc00(%rsi),%zmm0
    2b8e:	bc 34 00 
    2b91:	62 62 fd 58 b8 87 18 	vfmadd231pd 0x418(%rdi){1to8},%zmm0,%zmm24
    2b98:	04 00 00 
    2b9b:	62 62 fd 58 bc 8f 10 	vfnmadd231pd 0x410(%rdi){1to8},%zmm0,%zmm25
    2ba2:	04 00 00 
    2ba5:	62 62 fd 58 b8 97 b0 	vfmadd231pd 0x5b0(%rdi){1to8},%zmm0,%zmm26
    2bac:	05 00 00 
    2baf:	62 62 fd 58 bc 9f c0 	vfnmadd231pd 0x5c0(%rdi){1to8},%zmm0,%zmm27
    2bb6:	05 00 00 
    2bb9:	62 62 fd 58 b8 a7 b8 	vfmadd231pd 0x5b8(%rdi){1to8},%zmm0,%zmm28
    2bc0:	05 00 00 
    2bc3:	62 62 fd 58 b8 af b0 	vfmadd231pd 0x5b0(%rdi){1to8},%zmm0,%zmm29
    2bca:	05 00 00 
    2bcd:	62 62 fd 58 bc b7 c0 	vfnmadd231pd 0x5c0(%rdi){1to8},%zmm0,%zmm30
    2bd4:	05 00 00 
    2bd7:	62 62 fd 58 b8 bf b8 	vfmadd231pd 0x5b8(%rdi){1to8},%zmm0,%zmm31
    2bde:	05 00 00 
    2be1:	62 f1 fd 48 10 86 00 	vmovupd 0x3a9800(%rsi),%zmm0
    2be8:	98 3a 00 
    2beb:	62 62 fd 58 bc 87 10 	vfnmadd231pd 0x410(%rdi){1to8},%zmm0,%zmm24
    2bf2:	04 00 00 
    2bf5:	62 62 fd 58 bc 8f 10 	vfnmadd231pd 0x410(%rdi){1to8},%zmm0,%zmm25
    2bfc:	04 00 00 
    2bff:	62 62 fd 58 b8 97 b8 	vfmadd231pd 0x5b8(%rdi){1to8},%zmm0,%zmm26
    2c06:	05 00 00 
    2c09:	62 62 fd 58 b8 9f b8 	vfmadd231pd 0x5b8(%rdi){1to8},%zmm0,%zmm27
    2c10:	05 00 00 
    2c13:	62 62 fd 58 bc a7 c0 	vfnmadd231pd 0x5c0(%rdi){1to8},%zmm0,%zmm28
    2c1a:	05 00 00 
    2c1d:	62 62 fd 58 bc af c0 	vfnmadd231pd 0x5c0(%rdi){1to8},%zmm0,%zmm29
    2c24:	05 00 00 
    2c27:	62 62 fd 58 b8 b7 b0 	vfmadd231pd 0x5b0(%rdi){1to8},%zmm0,%zmm30
    2c2e:	05 00 00 
    2c31:	62 62 fd 58 b8 bf b0 	vfmadd231pd 0x5b0(%rdi){1to8},%zmm0,%zmm31
    2c38:	05 00 00 
    2c3b:	62 f1 fd 48 10 86 00 	vmovupd 0x407400(%rsi),%zmm0
    2c42:	74 40 00 
    2c45:	62 62 fd 58 bc 87 10 	vfnmadd231pd 0x410(%rdi){1to8},%zmm0,%zmm24
    2c4c:	04 00 00 
    2c4f:	62 62 fd 58 b8 8f 18 	vfmadd231pd 0x418(%rdi){1to8},%zmm0,%zmm25
    2c56:	04 00 00 
    2c59:	62 62 fd 58 bc 97 c0 	vfnmadd231pd 0x5c0(%rdi){1to8},%zmm0,%zmm26
    2c60:	05 00 00 
    2c63:	62 62 fd 58 b8 9f b0 	vfmadd231pd 0x5b0(%rdi){1to8},%zmm0,%zmm27
    2c6a:	05 00 00 
    2c6d:	62 62 fd 58 b8 a7 b0 	vfmadd231pd 0x5b0(%rdi){1to8},%zmm0,%zmm28
    2c74:	05 00 00 
    2c77:	62 62 fd 58 b8 af b8 	vfmadd231pd 0x5b8(%rdi){1to8},%zmm0,%zmm29
    2c7e:	05 00 00 
    2c81:	62 62 fd 58 b8 b7 b8 	vfmadd231pd 0x5b8(%rdi){1to8},%zmm0,%zmm30
    2c88:	05 00 00 
    2c8b:	62 62 fd 58 bc bf c0 	vfnmadd231pd 0x5c0(%rdi){1to8},%zmm0,%zmm31
    2c92:	05 00 00 
    2c95:	62 f1 fd 48 10 86 00 	vmovupd 0x465000(%rsi),%zmm0
    2c9c:	50 46 00 
    2c9f:	62 62 fd 58 b8 87 28 	vfmadd231pd 0x428(%rdi){1to8},%zmm0,%zmm24
    2ca6:	04 00 00 
    2ca9:	62 62 fd 58 bc 8f 20 	vfnmadd231pd 0x420(%rdi){1to8},%zmm0,%zmm25
    2cb0:	04 00 00 
    2cb3:	62 62 fd 58 bc 97 c8 	vfnmadd231pd 0x5c8(%rdi){1to8},%zmm0,%zmm26
    2cba:	05 00 00 
    2cbd:	62 62 fd 58 bc 9f e8 	vfnmadd231pd 0x5e8(%rdi){1to8},%zmm0,%zmm27
    2cc4:	05 00 00 
    2cc7:	62 62 fd 58 b8 a7 d0 	vfmadd231pd 0x5d0(%rdi){1to8},%zmm0,%zmm28
    2cce:	05 00 00 
    2cd1:	62 62 fd 58 bc af c8 	vfnmadd231pd 0x5c8(%rdi){1to8},%zmm0,%zmm29
    2cd8:	05 00 00 
    2cdb:	62 62 fd 58 bc b7 e8 	vfnmadd231pd 0x5e8(%rdi){1to8},%zmm0,%zmm30
    2ce2:	05 00 00 
    2ce5:	62 62 fd 58 b8 bf d0 	vfmadd231pd 0x5d0(%rdi){1to8},%zmm0,%zmm31
    2cec:	05 00 00 
    2cef:	62 f1 fd 48 10 86 00 	vmovupd 0x4c2c00(%rsi),%zmm0
    2cf6:	2c 4c 00 
    2cf9:	62 62 fd 58 bc 87 20 	vfnmadd231pd 0x420(%rdi){1to8},%zmm0,%zmm24
    2d00:	04 00 00 
    2d03:	62 62 fd 58 bc 8f 20 	vfnmadd231pd 0x420(%rdi){1to8},%zmm0,%zmm25
    2d0a:	04 00 00 
    2d0d:	62 62 fd 58 b8 97 d0 	vfmadd231pd 0x5d0(%rdi){1to8},%zmm0,%zmm26
    2d14:	05 00 00 
    2d17:	62 62 fd 58 b8 9f d0 	vfmadd231pd 0x5d0(%rdi){1to8},%zmm0,%zmm27
    2d1e:	05 00 00 
    2d21:	62 62 fd 58 bc a7 e8 	vfnmadd231pd 0x5e8(%rdi){1to8},%zmm0,%zmm28
    2d28:	05 00 00 
    2d2b:	62 62 fd 58 bc af e8 	vfnmadd231pd 0x5e8(%rdi){1to8},%zmm0,%zmm29
    2d32:	05 00 00 
    2d35:	62 62 fd 58 bc b7 c8 	vfnmadd231pd 0x5c8(%rdi){1to8},%zmm0,%zmm30
    2d3c:	05 00 00 
    2d3f:	62 62 fd 58 bc bf c8 	vfnmadd231pd 0x5c8(%rdi){1to8},%zmm0,%zmm31
    2d46:	05 00 00 
    2d49:	62 f1 fd 48 10 86 00 	vmovupd 0x520800(%rsi),%zmm0
    2d50:	08 52 00 
    2d53:	62 62 fd 58 b8 87 38 	vfmadd231pd 0x438(%rdi){1to8},%zmm0,%zmm24
    2d5a:	04 00 00 
    2d5d:	62 62 fd 58 b8 8f 38 	vfmadd231pd 0x438(%rdi){1to8},%zmm0,%zmm25
    2d64:	04 00 00 
    2d67:	62 62 fd 58 bc 97 d8 	vfnmadd231pd 0x5d8(%rdi){1to8},%zmm0,%zmm26
    2d6e:	05 00 00 
    2d71:	62 62 fd 58 bc 9f d8 	vfnmadd231pd 0x5d8(%rdi){1to8},%zmm0,%zmm27
    2d78:	05 00 00 
    2d7b:	62 62 fd 58 b8 a7 f0 	vfmadd231pd 0x5f0(%rdi){1to8},%zmm0,%zmm28
    2d82:	05 00 00 
    2d85:	62 62 fd 58 b8 af f0 	vfmadd231pd 0x5f0(%rdi){1to8},%zmm0,%zmm29
    2d8c:	05 00 00 
    2d8f:	62 62 fd 58 b8 b7 e0 	vfmadd231pd 0x5e0(%rdi){1to8},%zmm0,%zmm30
    2d96:	05 00 00 
    2d99:	62 62 fd 58 b8 bf e0 	vfmadd231pd 0x5e0(%rdi){1to8},%zmm0,%zmm31
    2da0:	05 00 00 
    2da3:	62 f1 fd 48 10 86 00 	vmovupd 0x57e400(%rsi),%zmm0
    2daa:	e4 57 00 
    2dad:	62 62 fd 58 bc 87 30 	vfnmadd231pd 0x430(%rdi){1to8},%zmm0,%zmm24
    2db4:	04 00 00 
    2db7:	62 62 fd 58 b8 8f 38 	vfmadd231pd 0x438(%rdi){1to8},%zmm0,%zmm25
    2dbe:	04 00 00 
    2dc1:	62 62 fd 58 b8 97 e0 	vfmadd231pd 0x5e0(%rdi){1to8},%zmm0,%zmm26
    2dc8:	05 00 00 
    2dcb:	62 62 fd 58 b8 9f f0 	vfmadd231pd 0x5f0(%rdi){1to8},%zmm0,%zmm27
    2dd2:	05 00 00 
    2dd5:	62 62 fd 58 bc a7 d8 	vfnmadd231pd 0x5d8(%rdi){1to8},%zmm0,%zmm28
    2ddc:	05 00 00 
    2ddf:	62 62 fd 58 b8 af e0 	vfmadd231pd 0x5e0(%rdi){1to8},%zmm0,%zmm29
    2de6:	05 00 00 
    2de9:	62 62 fd 58 b8 b7 f0 	vfmadd231pd 0x5f0(%rdi){1to8},%zmm0,%zmm30
    2df0:	05 00 00 
    2df3:	62 62 fd 58 bc bf d8 	vfnmadd231pd 0x5d8(%rdi){1to8},%zmm0,%zmm31
    2dfa:	05 00 00 
    2dfd:	62 f1 fd 48 10 86 00 	vmovupd 0x5dc000(%rsi),%zmm0
    2e04:	c0 5d 00 
    2e07:	62 62 fd 58 bc 87 20 	vfnmadd231pd 0x420(%rdi){1to8},%zmm0,%zmm24
    2e0e:	04 00 00 
    2e11:	62 62 fd 58 b8 8f 28 	vfmadd231pd 0x428(%rdi){1to8},%zmm0,%zmm25
    2e18:	04 00 00 
    2e1b:	62 62 fd 58 bc 97 e8 	vfnmadd231pd 0x5e8(%rdi){1to8},%zmm0,%zmm26
    2e22:	05 00 00 
    2e25:	62 62 fd 58 bc 9f c8 	vfnmadd231pd 0x5c8(%rdi){1to8},%zmm0,%zmm27
    2e2c:	05 00 00 
    2e2f:	62 62 fd 58 bc a7 c8 	vfnmadd231pd 0x5c8(%rdi){1to8},%zmm0,%zmm28
    2e36:	05 00 00 
    2e39:	62 62 fd 58 b8 af d0 	vfmadd231pd 0x5d0(%rdi){1to8},%zmm0,%zmm29
    2e40:	05 00 00 
    2e43:	62 62 fd 58 b8 b7 d0 	vfmadd231pd 0x5d0(%rdi){1to8},%zmm0,%zmm30
    2e4a:	05 00 00 
    2e4d:	62 62 fd 58 bc bf e8 	vfnmadd231pd 0x5e8(%rdi){1to8},%zmm0,%zmm31
    2e54:	05 00 00 
    2e57:	62 f1 fd 48 10 86 00 	vmovupd 0x639c00(%rsi),%zmm0
    2e5e:	9c 63 00 
    2e61:	62 62 fd 58 b8 87 38 	vfmadd231pd 0x438(%rdi){1to8},%zmm0,%zmm24
    2e68:	04 00 00 
    2e6b:	62 62 fd 58 bc 8f 30 	vfnmadd231pd 0x430(%rdi){1to8},%zmm0,%zmm25
    2e72:	04 00 00 
    2e75:	62 62 fd 58 b8 97 f0 	vfmadd231pd 0x5f0(%rdi){1to8},%zmm0,%zmm26
    2e7c:	05 00 00 
    2e7f:	62 62 fd 58 b8 9f e0 	vfmadd231pd 0x5e0(%rdi){1to8},%zmm0,%zmm27
    2e86:	05 00 00 
    2e89:	62 62 fd 58 b8 a7 e0 	vfmadd231pd 0x5e0(%rdi){1to8},%zmm0,%zmm28
    2e90:	05 00 00 
    2e93:	62 62 fd 58 bc af d8 	vfnmadd231pd 0x5d8(%rdi){1to8},%zmm0,%zmm29
    2e9a:	05 00 00 
    2e9d:	62 62 fd 58 bc b7 d8 	vfnmadd231pd 0x5d8(%rdi){1to8},%zmm0,%zmm30
    2ea4:	05 00 00 
    2ea7:	62 62 fd 58 b8 bf f0 	vfmadd231pd 0x5f0(%rdi){1to8},%zmm0,%zmm31
    2eae:	05 00 00 
    2eb1:	62 f1 fd 48 10 86 00 	vmovupd 0x697800(%rsi),%zmm0
    2eb8:	78 69 00 
    2ebb:	62 62 fd 58 bc 87 48 	vfnmadd231pd 0x448(%rdi){1to8},%zmm0,%zmm24
    2ec2:	04 00 00 
    2ec5:	62 62 fd 58 bc 8f 40 	vfnmadd231pd 0x440(%rdi){1to8},%zmm0,%zmm25
    2ecc:	04 00 00 
    2ecf:	62 62 fd 58 b8 97 f8 	vfmadd231pd 0x5f8(%rdi){1to8},%zmm0,%zmm26
    2ed6:	05 00 00 
    2ed9:	62 62 fd 58 b8 9f 18 	vfmadd231pd 0x618(%rdi){1to8},%zmm0,%zmm27
    2ee0:	06 00 00 
    2ee3:	62 62 fd 58 bc a7 00 	vfnmadd231pd 0x600(%rdi){1to8},%zmm0,%zmm28
    2eea:	06 00 00 
    2eed:	62 62 fd 58 b8 af f8 	vfmadd231pd 0x5f8(%rdi){1to8},%zmm0,%zmm29
    2ef4:	05 00 00 
    2ef7:	62 62 fd 58 b8 b7 18 	vfmadd231pd 0x618(%rdi){1to8},%zmm0,%zmm30
    2efe:	06 00 00 
    2f01:	62 62 fd 58 bc bf 00 	vfnmadd231pd 0x600(%rdi){1to8},%zmm0,%zmm31
    2f08:	06 00 00 
    2f0b:	62 f1 fd 48 10 86 00 	vmovupd 0x6f5400(%rsi),%zmm0
    2f12:	54 6f 00 
    2f15:	62 62 fd 58 bc 87 40 	vfnmadd231pd 0x440(%rdi){1to8},%zmm0,%zmm24
    2f1c:	04 00 00 
    2f1f:	62 62 fd 58 bc 8f 40 	vfnmadd231pd 0x440(%rdi){1to8},%zmm0,%zmm25
    2f26:	04 00 00 
    2f29:	62 62 fd 58 bc 97 00 	vfnmadd231pd 0x600(%rdi){1to8},%zmm0,%zmm26
    2f30:	06 00 00 
    2f33:	62 62 fd 58 bc 9f 00 	vfnmadd231pd 0x600(%rdi){1to8},%zmm0,%zmm27
    2f3a:	06 00 00 
    2f3d:	62 62 fd 58 b8 a7 18 	vfmadd231pd 0x618(%rdi){1to8},%zmm0,%zmm28
    2f44:	06 00 00 
    2f47:	62 62 fd 58 b8 af 18 	vfmadd231pd 0x618(%rdi){1to8},%zmm0,%zmm29
    2f4e:	06 00 00 
    2f51:	62 62 fd 58 b8 b7 f8 	vfmadd231pd 0x5f8(%rdi){1to8},%zmm0,%zmm30
    2f58:	05 00 00 
    2f5b:	62 62 fd 58 b8 bf f8 	vfmadd231pd 0x5f8(%rdi){1to8},%zmm0,%zmm31
    2f62:	05 00 00 
    2f65:	62 f1 fd 48 10 86 00 	vmovupd 0x753000(%rsi),%zmm0
    2f6c:	30 75 00 
    2f6f:	62 62 fd 58 bc 87 58 	vfnmadd231pd 0x458(%rdi){1to8},%zmm0,%zmm24
    2f76:	04 00 00 
    2f79:	62 62 fd 58 bc 8f 58 	vfnmadd231pd 0x458(%rdi){1to8},%zmm0,%zmm25
    2f80:	04 00 00 
    2f83:	62 62 fd 58 b8 97 08 	vfmadd231pd 0x608(%rdi){1to8},%zmm0,%zmm26
    2f8a:	06 00 00 
    2f8d:	62 62 fd 58 b8 9f 08 	vfmadd231pd 0x608(%rdi){1to8},%zmm0,%zmm27
    2f94:	06 00 00 
    2f97:	62 62 fd 58 bc a7 20 	vfnmadd231pd 0x620(%rdi){1to8},%zmm0,%zmm28
    2f9e:	06 00 00 
    2fa1:	62 62 fd 58 bc af 20 	vfnmadd231pd 0x620(%rdi){1to8},%zmm0,%zmm29
    2fa8:	06 00 00 
    2fab:	62 62 fd 58 bc b7 10 	vfnmadd231pd 0x610(%rdi){1to8},%zmm0,%zmm30
    2fb2:	06 00 00 
    2fb5:	62 62 fd 58 bc bf 10 	vfnmadd231pd 0x610(%rdi){1to8},%zmm0,%zmm31
    2fbc:	06 00 00 
    2fbf:	62 f1 fd 48 10 86 00 	vmovupd 0x7b0c00(%rsi),%zmm0
    2fc6:	0c 7b 00 
    2fc9:	62 62 fd 58 b8 87 50 	vfmadd231pd 0x450(%rdi){1to8},%zmm0,%zmm24
    2fd0:	04 00 00 
    2fd3:	62 62 fd 58 bc 8f 58 	vfnmadd231pd 0x458(%rdi){1to8},%zmm0,%zmm25
    2fda:	04 00 00 
    2fdd:	62 62 fd 58 bc 97 10 	vfnmadd231pd 0x610(%rdi){1to8},%zmm0,%zmm26
    2fe4:	06 00 00 
    2fe7:	62 62 fd 58 bc 9f 20 	vfnmadd231pd 0x620(%rdi){1to8},%zmm0,%zmm27
    2fee:	06 00 00 
    2ff1:	62 62 fd 58 b8 a7 08 	vfmadd231pd 0x608(%rdi){1to8},%zmm0,%zmm28
    2ff8:	06 00 00 
    2ffb:	62 62 fd 58 bc af 10 	vfnmadd231pd 0x610(%rdi){1to8},%zmm0,%zmm29
    3002:	06 00 00 
    3005:	62 62 fd 58 bc b7 20 	vfnmadd231pd 0x620(%rdi){1to8},%zmm0,%zmm30
    300c:	06 00 00 
    300f:	62 62 fd 58 b8 bf 08 	vfmadd231pd 0x608(%rdi){1to8},%zmm0,%zmm31
    3016:	06 00 00 
    3019:	62 f1 fd 48 10 86 00 	vmovupd 0x80e800(%rsi),%zmm0
    3020:	e8 80 00 
    3023:	62 62 fd 58 bc 87 40 	vfnmadd231pd 0x440(%rdi){1to8},%zmm0,%zmm24
    302a:	04 00 00 
    302d:	62 62 fd 58 bc 8f 48 	vfnmadd231pd 0x448(%rdi){1to8},%zmm0,%zmm25
    3034:	04 00 00 
    3037:	62 62 fd 58 b8 97 18 	vfmadd231pd 0x618(%rdi){1to8},%zmm0,%zmm26
    303e:	06 00 00 
    3041:	62 62 fd 58 b8 9f f8 	vfmadd231pd 0x5f8(%rdi){1to8},%zmm0,%zmm27
    3048:	05 00 00 
    304b:	62 62 fd 58 b8 a7 f8 	vfmadd231pd 0x5f8(%rdi){1to8},%zmm0,%zmm28
    3052:	05 00 00 
    3055:	62 62 fd 58 bc af 00 	vfnmadd231pd 0x600(%rdi){1to8},%zmm0,%zmm29
    305c:	06 00 00 
    305f:	62 62 fd 58 bc b7 00 	vfnmadd231pd 0x600(%rdi){1to8},%zmm0,%zmm30
    3066:	06 00 00 
    3069:	62 62 fd 58 b8 bf 18 	vfmadd231pd 0x618(%rdi){1to8},%zmm0,%zmm31
    3070:	06 00 00 
    3073:	62 f1 fd 48 10 86 00 	vmovupd 0x86c400(%rsi),%zmm0
    307a:	c4 86 00 
    307d:	62 62 fd 58 bc 87 58 	vfnmadd231pd 0x458(%rdi){1to8},%zmm0,%zmm24
    3084:	04 00 00 
    3087:	62 62 fd 58 b8 8f 50 	vfmadd231pd 0x450(%rdi){1to8},%zmm0,%zmm25
    308e:	04 00 00 
    3091:	62 62 fd 58 bc 97 20 	vfnmadd231pd 0x620(%rdi){1to8},%zmm0,%zmm26
    3098:	06 00 00 
    309b:	62 62 fd 58 bc 9f 10 	vfnmadd231pd 0x610(%rdi){1to8},%zmm0,%zmm27
    30a2:	06 00 00 
    30a5:	62 62 fd 58 bc a7 10 	vfnmadd231pd 0x610(%rdi){1to8},%zmm0,%zmm28
    30ac:	06 00 00 
    30af:	62 62 fd 58 b8 af 08 	vfmadd231pd 0x608(%rdi){1to8},%zmm0,%zmm29
    30b6:	06 00 00 
    30b9:	62 62 fd 58 b8 b7 08 	vfmadd231pd 0x608(%rdi){1to8},%zmm0,%zmm30
    30c0:	06 00 00 
    30c3:	62 62 fd 58 bc bf 20 	vfnmadd231pd 0x620(%rdi){1to8},%zmm0,%zmm31
    30ca:	06 00 00 
    30cd:	62 f1 fd 48 10 86 00 	vmovupd 0x8ca000(%rsi),%zmm0
    30d4:	a0 8c 00 
    30d7:	62 62 fd 58 b8 87 90 	vfmadd231pd 0x490(%rdi){1to8},%zmm0,%zmm24
    30de:	04 00 00 
    30e1:	62 62 fd 58 bc 8f 60 	vfnmadd231pd 0x460(%rdi){1to8},%zmm0,%zmm25
    30e8:	04 00 00 
    30eb:	62 62 fd 58 bc 97 28 	vfnmadd231pd 0x628(%rdi){1to8},%zmm0,%zmm26
    30f2:	06 00 00 
    30f5:	62 62 fd 58 bc 9f 68 	vfnmadd231pd 0x668(%rdi){1to8},%zmm0,%zmm27
    30fc:	06 00 00 
    30ff:	62 62 fd 58 b8 a7 70 	vfmadd231pd 0x670(%rdi){1to8},%zmm0,%zmm28
    3106:	06 00 00 
    3109:	62 62 fd 58 bc af 28 	vfnmadd231pd 0x628(%rdi){1to8},%zmm0,%zmm29
    3110:	06 00 00 
    3113:	62 62 fd 58 bc b7 68 	vfnmadd231pd 0x668(%rdi){1to8},%zmm0,%zmm30
    311a:	06 00 00 
    311d:	62 62 fd 58 b8 bf 70 	vfmadd231pd 0x670(%rdi){1to8},%zmm0,%zmm31
    3124:	06 00 00 
    3127:	62 f1 fd 48 10 86 00 	vmovupd 0x927c00(%rsi),%zmm0
    312e:	7c 92 00 
    3131:	62 62 fd 58 b8 87 78 	vfmadd231pd 0x478(%rdi){1to8},%zmm0,%zmm24
    3138:	04 00 00 
    313b:	62 62 fd 58 b8 8f 88 	vfmadd231pd 0x488(%rdi){1to8},%zmm0,%zmm25
    3142:	04 00 00 
    3145:	62 62 fd 58 bc 97 30 	vfnmadd231pd 0x630(%rdi){1to8},%zmm0,%zmm26
    314c:	06 00 00 
    314f:	62 62 fd 58 bc 9f 78 	vfnmadd231pd 0x678(%rdi){1to8},%zmm0,%zmm27
    3156:	06 00 00 
    3159:	62 62 fd 58 b8 a7 40 	vfmadd231pd 0x640(%rdi){1to8},%zmm0,%zmm28
    3160:	06 00 00 
    3163:	62 62 fd 58 b8 af 80 	vfmadd231pd 0x680(%rdi){1to8},%zmm0,%zmm29
    316a:	06 00 00 
    316d:	62 62 fd 58 bc b7 60 	vfnmadd231pd 0x660(%rdi){1to8},%zmm0,%zmm30
    3174:	06 00 00 
    3177:	62 62 fd 58 b8 bf 50 	vfmadd231pd 0x650(%rdi){1to8},%zmm0,%zmm31
    317e:	06 00 00 
    3181:	62 f1 fd 48 10 86 00 	vmovupd 0x985800(%rsi),%zmm0
    3188:	58 98 00 
    318b:	62 62 fd 58 bc 87 70 	vfnmadd231pd 0x470(%rdi){1to8},%zmm0,%zmm24
    3192:	04 00 00 
    3195:	62 62 fd 58 b8 8f 80 	vfmadd231pd 0x480(%rdi){1to8},%zmm0,%zmm25
    319c:	04 00 00 
    319f:	62 62 fd 58 bc 97 38 	vfnmadd231pd 0x638(%rdi){1to8},%zmm0,%zmm26
    31a6:	06 00 00 
    31a9:	62 62 fd 58 b8 9f 58 	vfmadd231pd 0x658(%rdi){1to8},%zmm0,%zmm27
    31b0:	06 00 00 
    31b3:	62 62 fd 58 b8 a7 58 	vfmadd231pd 0x658(%rdi){1to8},%zmm0,%zmm28
    31ba:	06 00 00 
    31bd:	62 62 fd 58 bc af 48 	vfnmadd231pd 0x648(%rdi){1to8},%zmm0,%zmm29
    31c4:	06 00 00 
    31c7:	62 62 fd 58 bc b7 48 	vfnmadd231pd 0x648(%rdi){1to8},%zmm0,%zmm30
    31ce:	06 00 00 
    31d1:	62 62 fd 58 bc bf 38 	vfnmadd231pd 0x638(%rdi){1to8},%zmm0,%zmm31
    31d8:	06 00 00 
    31db:	62 f1 fd 48 10 86 00 	vmovupd 0x9e3400(%rsi),%zmm0
    31e2:	34 9e 00 
    31e5:	62 62 fd 58 b8 87 88 	vfmadd231pd 0x488(%rdi){1to8},%zmm0,%zmm24
    31ec:	04 00 00 
    31ef:	62 62 fd 58 bc 8f 68 	vfnmadd231pd 0x468(%rdi){1to8},%zmm0,%zmm25
    31f6:	04 00 00 
    31f9:	62 62 fd 58 b8 97 40 	vfmadd231pd 0x640(%rdi){1to8},%zmm0,%zmm26
    3200:	06 00 00 
    3203:	62 62 fd 58 b8 9f 50 	vfmadd231pd 0x650(%rdi){1to8},%zmm0,%zmm27
    320a:	06 00 00 
    320d:	62 62 fd 58 bc a7 60 	vfnmadd231pd 0x660(%rdi){1to8},%zmm0,%zmm28
    3214:	06 00 00 
    3217:	62 62 fd 58 bc af 78 	vfnmadd231pd 0x678(%rdi){1to8},%zmm0,%zmm29
    321e:	06 00 00 
    3221:	62 62 fd 58 bc b7 30 	vfnmadd231pd 0x630(%rdi){1to8},%zmm0,%zmm30
    3228:	06 00 00 
    322b:	62 62 fd 58 b8 bf 80 	vfmadd231pd 0x680(%rdi){1to8},%zmm0,%zmm31
    3232:	06 00 00 
    3235:	62 f1 fd 48 10 86 00 	vmovupd 0xa41000(%rsi),%zmm0
    323c:	10 a4 00 
    323f:	62 62 fd 58 bc 87 70 	vfnmadd231pd 0x470(%rdi){1to8},%zmm0,%zmm24
    3246:	04 00 00 
    3249:	62 62 fd 58 bc 8f 70 	vfnmadd231pd 0x470(%rdi){1to8},%zmm0,%zmm25
    3250:	04 00 00 
    3253:	62 62 fd 58 bc 97 48 	vfnmadd231pd 0x648(%rdi){1to8},%zmm0,%zmm26
    325a:	06 00 00 
    325d:	62 62 fd 58 bc 9f 48 	vfnmadd231pd 0x648(%rdi){1to8},%zmm0,%zmm27
    3264:	06 00 00 
    3267:	62 62 fd 58 bc a7 38 	vfnmadd231pd 0x638(%rdi){1to8},%zmm0,%zmm28
    326e:	06 00 00 
    3271:	62 62 fd 58 bc af 38 	vfnmadd231pd 0x638(%rdi){1to8},%zmm0,%zmm29
    3278:	06 00 00 
    327b:	62 62 fd 58 b8 b7 58 	vfmadd231pd 0x658(%rdi){1to8},%zmm0,%zmm30
    3282:	06 00 00 
    3285:	62 62 fd 58 b8 bf 58 	vfmadd231pd 0x658(%rdi){1to8},%zmm0,%zmm31
    328c:	06 00 00 
    328f:	62 f1 fd 48 10 86 00 	vmovupd 0xa9ec00(%rsi),%zmm0
    3296:	ec a9 00 
    3299:	62 62 fd 58 bc 87 68 	vfnmadd231pd 0x468(%rdi){1to8},%zmm0,%zmm24
    32a0:	04 00 00 
    32a3:	62 62 fd 58 b8 8f 88 	vfmadd231pd 0x488(%rdi){1to8},%zmm0,%zmm25
    32aa:	04 00 00 
    32ad:	62 62 fd 58 b8 97 50 	vfmadd231pd 0x650(%rdi){1to8},%zmm0,%zmm26
    32b4:	06 00 00 
    32b7:	62 62 fd 58 b8 9f 40 	vfmadd231pd 0x640(%rdi){1to8},%zmm0,%zmm27
    32be:	06 00 00 
    32c1:	62 62 fd 58 bc a7 78 	vfnmadd231pd 0x678(%rdi){1to8},%zmm0,%zmm28
    32c8:	06 00 00 
    32cb:	62 62 fd 58 bc af 60 	vfnmadd231pd 0x660(%rdi){1to8},%zmm0,%zmm29
    32d2:	06 00 00 
    32d5:	62 62 fd 58 b8 b7 80 	vfmadd231pd 0x680(%rdi){1to8},%zmm0,%zmm30
    32dc:	06 00 00 
    32df:	62 62 fd 58 bc bf 30 	vfnmadd231pd 0x630(%rdi){1to8},%zmm0,%zmm31
    32e6:	06 00 00 
    32e9:	62 f1 fd 48 10 86 00 	vmovupd 0xafc800(%rsi),%zmm0
    32f0:	c8 af 00 
    32f3:	62 62 fd 58 b8 87 80 	vfmadd231pd 0x480(%rdi){1to8},%zmm0,%zmm24
    32fa:	04 00 00 
    32fd:	62 62 fd 58 bc 8f 70 	vfnmadd231pd 0x470(%rdi){1to8},%zmm0,%zmm25
    3304:	04 00 00 
    3307:	62 62 fd 58 b8 97 58 	vfmadd231pd 0x658(%rdi){1to8},%zmm0,%zmm26
    330e:	06 00 00 
    3311:	62 62 fd 58 bc 9f 38 	vfnmadd231pd 0x638(%rdi){1to8},%zmm0,%zmm27
    3318:	06 00 00 
    331b:	62 62 fd 58 bc a7 48 	vfnmadd231pd 0x648(%rdi){1to8},%zmm0,%zmm28
    3322:	06 00 00 
    3325:	62 62 fd 58 b8 af 58 	vfmadd231pd 0x658(%rdi){1to8},%zmm0,%zmm29
    332c:	06 00 00 
    332f:	62 62 fd 58 bc b7 38 	vfnmadd231pd 0x638(%rdi){1to8},%zmm0,%zmm30
    3336:	06 00 00 
    3339:	62 62 fd 58 bc bf 48 	vfnmadd231pd 0x648(%rdi){1to8},%zmm0,%zmm31
    3340:	06 00 00 
    3343:	62 f1 fd 48 10 86 00 	vmovupd 0xb5a400(%rsi),%zmm0
    334a:	a4 b5 00 
    334d:	62 62 fd 58 bc 87 68 	vfnmadd231pd 0x468(%rdi){1to8},%zmm0,%zmm24
    3354:	04 00 00 
    3357:	62 62 fd 58 b8 8f 78 	vfmadd231pd 0x478(%rdi){1to8},%zmm0,%zmm25
    335e:	04 00 00 
    3361:	62 62 fd 58 bc 97 60 	vfnmadd231pd 0x660(%rdi){1to8},%zmm0,%zmm26
    3368:	06 00 00 
    336b:	62 62 fd 58 b8 9f 80 	vfmadd231pd 0x680(%rdi){1to8},%zmm0,%zmm27
    3372:	06 00 00 
    3375:	62 62 fd 58 bc a7 30 	vfnmadd231pd 0x630(%rdi){1to8},%zmm0,%zmm28
    337c:	06 00 00 
    337f:	62 62 fd 58 b8 af 50 	vfmadd231pd 0x650(%rdi){1to8},%zmm0,%zmm29
    3386:	06 00 00 
    3389:	62 62 fd 58 b8 b7 40 	vfmadd231pd 0x640(%rdi){1to8},%zmm0,%zmm30
    3390:	06 00 00 
    3393:	62 62 fd 58 bc bf 78 	vfnmadd231pd 0x678(%rdi){1to8},%zmm0,%zmm31
    339a:	06 00 00 
    339d:	62 f1 fd 48 10 86 00 	vmovupd 0xbb8000(%rsi),%zmm0
    33a4:	80 bb 00 
    33a7:	62 62 fd 58 bc 87 60 	vfnmadd231pd 0x460(%rdi){1to8},%zmm0,%zmm24
    33ae:	04 00 00 
    33b1:	62 62 fd 58 b8 8f 90 	vfmadd231pd 0x490(%rdi){1to8},%zmm0,%zmm25
    33b8:	04 00 00 
    33bb:	62 62 fd 58 bc 97 68 	vfnmadd231pd 0x668(%rdi){1to8},%zmm0,%zmm26
    33c2:	06 00 00 
    33c5:	62 62 fd 58 bc 9f 28 	vfnmadd231pd 0x628(%rdi){1to8},%zmm0,%zmm27
    33cc:	06 00 00 
    33cf:	62 62 fd 58 bc a7 28 	vfnmadd231pd 0x628(%rdi){1to8},%zmm0,%zmm28
    33d6:	06 00 00 
    33d9:	62 62 fd 58 b8 af 70 	vfmadd231pd 0x670(%rdi){1to8},%zmm0,%zmm29
    33e0:	06 00 00 
    33e3:	62 62 fd 58 b8 b7 70 	vfmadd231pd 0x670(%rdi){1to8},%zmm0,%zmm30
    33ea:	06 00 00 
    33ed:	62 62 fd 58 bc bf 68 	vfnmadd231pd 0x668(%rdi){1to8},%zmm0,%zmm31
    33f4:	06 00 00 
    33f7:	62 f1 fd 48 10 86 00 	vmovupd 0xc15c00(%rsi),%zmm0
    33fe:	5c c1 00 
    3401:	62 62 fd 58 bc 87 60 	vfnmadd231pd 0x460(%rdi){1to8},%zmm0,%zmm24
    3408:	04 00 00 
    340b:	62 62 fd 58 bc 8f 60 	vfnmadd231pd 0x460(%rdi){1to8},%zmm0,%zmm25
    3412:	04 00 00 
    3415:	62 62 fd 58 b8 97 70 	vfmadd231pd 0x670(%rdi){1to8},%zmm0,%zmm26
    341c:	06 00 00 
    341f:	62 62 fd 58 b8 9f 70 	vfmadd231pd 0x670(%rdi){1to8},%zmm0,%zmm27
    3426:	06 00 00 
    3429:	62 62 fd 58 bc a7 68 	vfnmadd231pd 0x668(%rdi){1to8},%zmm0,%zmm28
    3430:	06 00 00 
    3433:	62 62 fd 58 bc af 68 	vfnmadd231pd 0x668(%rdi){1to8},%zmm0,%zmm29
    343a:	06 00 00 
    343d:	62 62 fd 58 bc b7 28 	vfnmadd231pd 0x628(%rdi){1to8},%zmm0,%zmm30
    3444:	06 00 00 
    3447:	62 62 fd 58 bc bf 28 	vfnmadd231pd 0x628(%rdi){1to8},%zmm0,%zmm31
    344e:	06 00 00 
    3451:	62 f1 fd 48 10 86 00 	vmovupd 0xc73800(%rsi),%zmm0
    3458:	38 c7 00 
    345b:	62 62 fd 58 b8 87 88 	vfmadd231pd 0x488(%rdi){1to8},%zmm0,%zmm24
    3462:	04 00 00 
    3465:	62 62 fd 58 b8 8f 78 	vfmadd231pd 0x478(%rdi){1to8},%zmm0,%zmm25
    346c:	04 00 00 
    346f:	62 62 fd 58 bc 97 78 	vfnmadd231pd 0x678(%rdi){1to8},%zmm0,%zmm26
    3476:	06 00 00 
    3479:	62 62 fd 58 bc 9f 30 	vfnmadd231pd 0x630(%rdi){1to8},%zmm0,%zmm27
    3480:	06 00 00 
    3483:	62 62 fd 58 b8 a7 80 	vfmadd231pd 0x680(%rdi){1to8},%zmm0,%zmm28
    348a:	06 00 00 
    348d:	62 62 fd 58 b8 af 40 	vfmadd231pd 0x640(%rdi){1to8},%zmm0,%zmm29
    3494:	06 00 00 
    3497:	62 62 fd 58 b8 b7 50 	vfmadd231pd 0x650(%rdi){1to8},%zmm0,%zmm30
    349e:	06 00 00 
    34a1:	62 62 fd 58 bc bf 60 	vfnmadd231pd 0x660(%rdi){1to8},%zmm0,%zmm31
    34a8:	06 00 00 
    34ab:	62 f1 fd 48 10 86 00 	vmovupd 0xcd1400(%rsi),%zmm0
    34b2:	14 cd 00 
    34b5:	62 62 fd 58 b8 87 78 	vfmadd231pd 0x478(%rdi){1to8},%zmm0,%zmm24
    34bc:	04 00 00 
    34bf:	62 62 fd 58 bc 8f 68 	vfnmadd231pd 0x468(%rdi){1to8},%zmm0,%zmm25
    34c6:	04 00 00 
    34c9:	62 62 fd 58 b8 97 80 	vfmadd231pd 0x680(%rdi){1to8},%zmm0,%zmm26
    34d0:	06 00 00 
    34d3:	62 62 fd 58 bc 9f 60 	vfnmadd231pd 0x660(%rdi){1to8},%zmm0,%zmm27
    34da:	06 00 00 
    34dd:	62 62 fd 58 b8 a7 50 	vfmadd231pd 0x650(%rdi){1to8},%zmm0,%zmm28
    34e4:	06 00 00 
    34e7:	62 62 fd 58 bc af 30 	vfnmadd231pd 0x630(%rdi){1to8},%zmm0,%zmm29
    34ee:	06 00 00 
    34f1:	62 62 fd 58 bc b7 78 	vfnmadd231pd 0x678(%rdi){1to8},%zmm0,%zmm30
    34f8:	06 00 00 
    34fb:	62 62 fd 58 b8 bf 40 	vfmadd231pd 0x640(%rdi){1to8},%zmm0,%zmm31
    3502:	06 00 00 
    3505:	62 f1 fd 48 10 86 00 	vmovupd 0xd2f000(%rsi),%zmm0
    350c:	f0 d2 00 
    350f:	62 62 fd 58 bc 87 c8 	vfnmadd231pd 0x4c8(%rdi){1to8},%zmm0,%zmm24
    3516:	04 00 00 
    3519:	62 62 fd 58 b8 8f 98 	vfmadd231pd 0x498(%rdi){1to8},%zmm0,%zmm25
    3520:	04 00 00 
    3523:	62 62 fd 58 bc 97 88 	vfnmadd231pd 0x688(%rdi){1to8},%zmm0,%zmm26
    352a:	06 00 00 
    352d:	62 62 fd 58 b8 9f c8 	vfmadd231pd 0x6c8(%rdi){1to8},%zmm0,%zmm27
    3534:	06 00 00 
    3537:	62 62 fd 58 b8 a7 d0 	vfmadd231pd 0x6d0(%rdi){1to8},%zmm0,%zmm28
    353e:	06 00 00 
    3541:	62 62 fd 58 bc af 88 	vfnmadd231pd 0x688(%rdi){1to8},%zmm0,%zmm29
    3548:	06 00 00 
    354b:	62 62 fd 58 b8 b7 c8 	vfmadd231pd 0x6c8(%rdi){1to8},%zmm0,%zmm30
    3552:	06 00 00 
    3555:	62 62 fd 58 b8 bf d0 	vfmadd231pd 0x6d0(%rdi){1to8},%zmm0,%zmm31
    355c:	06 00 00 
    355f:	62 f1 fd 48 10 86 00 	vmovupd 0xd8cc00(%rsi),%zmm0
    3566:	cc d8 00 
    3569:	62 62 fd 58 b8 87 b0 	vfmadd231pd 0x4b0(%rdi){1to8},%zmm0,%zmm24
    3570:	04 00 00 
    3573:	62 62 fd 58 bc 8f c0 	vfnmadd231pd 0x4c0(%rdi){1to8},%zmm0,%zmm25
    357a:	04 00 00 
    357d:	62 62 fd 58 bc 97 90 	vfnmadd231pd 0x690(%rdi){1to8},%zmm0,%zmm26
    3584:	06 00 00 
    3587:	62 62 fd 58 b8 9f d8 	vfmadd231pd 0x6d8(%rdi){1to8},%zmm0,%zmm27
    358e:	06 00 00 
    3591:	62 62 fd 58 bc a7 a0 	vfnmadd231pd 0x6a0(%rdi){1to8},%zmm0,%zmm28
    3598:	06 00 00 
    359b:	62 62 fd 58 b8 af e0 	vfmadd231pd 0x6e0(%rdi){1to8},%zmm0,%zmm29
    35a2:	06 00 00 
    35a5:	62 62 fd 58 bc b7 c0 	vfnmadd231pd 0x6c0(%rdi){1to8},%zmm0,%zmm30
    35ac:	06 00 00 
    35af:	62 62 fd 58 b8 bf b0 	vfmadd231pd 0x6b0(%rdi){1to8},%zmm0,%zmm31
    35b6:	06 00 00 
    35b9:	62 f1 fd 48 10 86 00 	vmovupd 0xdea800(%rsi),%zmm0
    35c0:	a8 de 00 
    35c3:	62 62 fd 58 b8 87 a8 	vfmadd231pd 0x4a8(%rdi){1to8},%zmm0,%zmm24
    35ca:	04 00 00 
    35cd:	62 62 fd 58 b8 8f b8 	vfmadd231pd 0x4b8(%rdi){1to8},%zmm0,%zmm25
    35d4:	04 00 00 
    35d7:	62 62 fd 58 b8 97 98 	vfmadd231pd 0x698(%rdi){1to8},%zmm0,%zmm26
    35de:	06 00 00 
    35e1:	62 62 fd 58 b8 9f b8 	vfmadd231pd 0x6b8(%rdi){1to8},%zmm0,%zmm27
    35e8:	06 00 00 
    35eb:	62 62 fd 58 b8 a7 b8 	vfmadd231pd 0x6b8(%rdi){1to8},%zmm0,%zmm28
    35f2:	06 00 00 
    35f5:	62 62 fd 58 bc af a8 	vfnmadd231pd 0x6a8(%rdi){1to8},%zmm0,%zmm29
    35fc:	06 00 00 
    35ff:	62 62 fd 58 bc b7 a8 	vfnmadd231pd 0x6a8(%rdi){1to8},%zmm0,%zmm30
    3606:	06 00 00 
    3609:	62 62 fd 58 b8 bf 98 	vfmadd231pd 0x698(%rdi){1to8},%zmm0,%zmm31
    3610:	06 00 00 
    3613:	62 f1 fd 48 10 86 00 	vmovupd 0xe48400(%rsi),%zmm0
    361a:	84 e4 00 
    361d:	62 62 fd 58 bc 87 c0 	vfnmadd231pd 0x4c0(%rdi){1to8},%zmm0,%zmm24
    3624:	04 00 00 
    3627:	62 62 fd 58 b8 8f a0 	vfmadd231pd 0x4a0(%rdi){1to8},%zmm0,%zmm25
    362e:	04 00 00 
    3631:	62 62 fd 58 bc 97 a0 	vfnmadd231pd 0x6a0(%rdi){1to8},%zmm0,%zmm26
    3638:	06 00 00 
    363b:	62 62 fd 58 b8 9f b0 	vfmadd231pd 0x6b0(%rdi){1to8},%zmm0,%zmm27
    3642:	06 00 00 
    3645:	62 62 fd 58 bc a7 c0 	vfnmadd231pd 0x6c0(%rdi){1to8},%zmm0,%zmm28
    364c:	06 00 00 
    364f:	62 62 fd 58 b8 af d8 	vfmadd231pd 0x6d8(%rdi){1to8},%zmm0,%zmm29
    3656:	06 00 00 
    3659:	62 62 fd 58 bc b7 90 	vfnmadd231pd 0x690(%rdi){1to8},%zmm0,%zmm30
    3660:	06 00 00 
    3663:	62 62 fd 58 b8 bf e0 	vfmadd231pd 0x6e0(%rdi){1to8},%zmm0,%zmm31
    366a:	06 00 00 
    366d:	62 f1 fd 48 10 86 00 	vmovupd 0xea6000(%rsi),%zmm0
    3674:	60 ea 00 
    3677:	62 62 fd 58 b8 87 a8 	vfmadd231pd 0x4a8(%rdi){1to8},%zmm0,%zmm24
    367e:	04 00 00 
    3681:	62 62 fd 58 b8 8f a8 	vfmadd231pd 0x4a8(%rdi){1to8},%zmm0,%zmm25
    3688:	04 00 00 
    368b:	62 62 fd 58 bc 97 a8 	vfnmadd231pd 0x6a8(%rdi){1to8},%zmm0,%zmm26
    3692:	06 00 00 
    3695:	62 62 fd 58 bc 9f a8 	vfnmadd231pd 0x6a8(%rdi){1to8},%zmm0,%zmm27
    369c:	06 00 00 
    369f:	62 62 fd 58 b8 a7 98 	vfmadd231pd 0x698(%rdi){1to8},%zmm0,%zmm28
    36a6:	06 00 00 
    36a9:	62 62 fd 58 b8 af 98 	vfmadd231pd 0x698(%rdi){1to8},%zmm0,%zmm29
    36b0:	06 00 00 
    36b3:	62 62 fd 58 b8 b7 b8 	vfmadd231pd 0x6b8(%rdi){1to8},%zmm0,%zmm30
    36ba:	06 00 00 
    36bd:	62 62 fd 58 b8 bf b8 	vfmadd231pd 0x6b8(%rdi){1to8},%zmm0,%zmm31
    36c4:	06 00 00 
    36c7:	62 f1 fd 48 10 86 00 	vmovupd 0xf03c00(%rsi),%zmm0
    36ce:	3c f0 00 
    36d1:	62 62 fd 58 b8 87 a0 	vfmadd231pd 0x4a0(%rdi){1to8},%zmm0,%zmm24
    36d8:	04 00 00 
    36db:	62 62 fd 58 bc 8f c0 	vfnmadd231pd 0x4c0(%rdi){1to8},%zmm0,%zmm25
    36e2:	04 00 00 
    36e5:	62 62 fd 58 b8 97 b0 	vfmadd231pd 0x6b0(%rdi){1to8},%zmm0,%zmm26
    36ec:	06 00 00 
    36ef:	62 62 fd 58 bc 9f a0 	vfnmadd231pd 0x6a0(%rdi){1to8},%zmm0,%zmm27
    36f6:	06 00 00 
    36f9:	62 62 fd 58 b8 a7 d8 	vfmadd231pd 0x6d8(%rdi){1to8},%zmm0,%zmm28
    3700:	06 00 00 
    3703:	62 62 fd 58 bc af c0 	vfnmadd231pd 0x6c0(%rdi){1to8},%zmm0,%zmm29
    370a:	06 00 00 
    370d:	62 62 fd 58 b8 b7 e0 	vfmadd231pd 0x6e0(%rdi){1to8},%zmm0,%zmm30
    3714:	06 00 00 
    3717:	62 62 fd 58 bc bf 90 	vfnmadd231pd 0x690(%rdi){1to8},%zmm0,%zmm31
    371e:	06 00 00 
    3721:	62 f1 fd 48 10 86 00 	vmovupd 0xf61800(%rsi),%zmm0
    3728:	18 f6 00 
    372b:	62 62 fd 58 b8 87 b8 	vfmadd231pd 0x4b8(%rdi){1to8},%zmm0,%zmm24
    3732:	04 00 00 
    3735:	62 62 fd 58 b8 8f a8 	vfmadd231pd 0x4a8(%rdi){1to8},%zmm0,%zmm25
    373c:	04 00 00 
    373f:	62 62 fd 58 b8 97 b8 	vfmadd231pd 0x6b8(%rdi){1to8},%zmm0,%zmm26
    3746:	06 00 00 
    3749:	62 62 fd 58 b8 9f 98 	vfmadd231pd 0x698(%rdi){1to8},%zmm0,%zmm27
    3750:	06 00 00 
    3753:	62 62 fd 58 bc a7 a8 	vfnmadd231pd 0x6a8(%rdi){1to8},%zmm0,%zmm28
    375a:	06 00 00 
    375d:	62 62 fd 58 b8 af b8 	vfmadd231pd 0x6b8(%rdi){1to8},%zmm0,%zmm29
    3764:	06 00 00 
    3767:	62 62 fd 58 b8 b7 98 	vfmadd231pd 0x698(%rdi){1to8},%zmm0,%zmm30
    376e:	06 00 00 
    3771:	62 62 fd 58 bc bf a8 	vfnmadd231pd 0x6a8(%rdi){1to8},%zmm0,%zmm31
    3778:	06 00 00 
    377b:	62 f1 fd 48 10 86 00 	vmovupd 0xfbf400(%rsi),%zmm0
    3782:	f4 fb 00 
    3785:	62 62 fd 58 b8 87 a0 	vfmadd231pd 0x4a0(%rdi){1to8},%zmm0,%zmm24
    378c:	04 00 00 
    378f:	62 62 fd 58 b8 8f b0 	vfmadd231pd 0x4b0(%rdi){1to8},%zmm0,%zmm25
    3796:	04 00 00 
    3799:	62 62 fd 58 bc 97 c0 	vfnmadd231pd 0x6c0(%rdi){1to8},%zmm0,%zmm26
    37a0:	06 00 00 
    37a3:	62 62 fd 58 b8 9f e0 	vfmadd231pd 0x6e0(%rdi){1to8},%zmm0,%zmm27
    37aa:	06 00 00 
    37ad:	62 62 fd 58 bc a7 90 	vfnmadd231pd 0x690(%rdi){1to8},%zmm0,%zmm28
    37b4:	06 00 00 
    37b7:	62 62 fd 58 b8 af b0 	vfmadd231pd 0x6b0(%rdi){1to8},%zmm0,%zmm29
    37be:	06 00 00 
    37c1:	62 62 fd 58 bc b7 a0 	vfnmadd231pd 0x6a0(%rdi){1to8},%zmm0,%zmm30
    37c8:	06 00 00 
    37cb:	62 62 fd 58 b8 bf d8 	vfmadd231pd 0x6d8(%rdi){1to8},%zmm0,%zmm31
    37d2:	06 00 00 
    37d5:	62 f1 fd 48 10 86 00 	vmovupd 0x101d000(%rsi),%zmm0
    37dc:	d0 01 01 
    37df:	62 62 fd 58 b8 87 98 	vfmadd231pd 0x498(%rdi){1to8},%zmm0,%zmm24
    37e6:	04 00 00 
    37e9:	62 62 fd 58 bc 8f c8 	vfnmadd231pd 0x4c8(%rdi){1to8},%zmm0,%zmm25
    37f0:	04 00 00 
    37f3:	62 62 fd 58 b8 97 c8 	vfmadd231pd 0x6c8(%rdi){1to8},%zmm0,%zmm26
    37fa:	06 00 00 
    37fd:	62 62 fd 58 bc 9f 88 	vfnmadd231pd 0x688(%rdi){1to8},%zmm0,%zmm27
    3804:	06 00 00 
    3807:	62 62 fd 58 bc a7 88 	vfnmadd231pd 0x688(%rdi){1to8},%zmm0,%zmm28
    380e:	06 00 00 
    3811:	62 62 fd 58 b8 af d0 	vfmadd231pd 0x6d0(%rdi){1to8},%zmm0,%zmm29
    3818:	06 00 00 
    381b:	62 62 fd 58 b8 b7 d0 	vfmadd231pd 0x6d0(%rdi){1to8},%zmm0,%zmm30
    3822:	06 00 00 
    3825:	62 62 fd 58 b8 bf c8 	vfmadd231pd 0x6c8(%rdi){1to8},%zmm0,%zmm31
    382c:	06 00 00 
    382f:	62 f1 fd 48 10 86 00 	vmovupd 0x107ac00(%rsi),%zmm0
    3836:	ac 07 01 
    3839:	62 62 fd 58 b8 87 98 	vfmadd231pd 0x498(%rdi){1to8},%zmm0,%zmm24
    3840:	04 00 00 
    3843:	62 62 fd 58 b8 8f 98 	vfmadd231pd 0x498(%rdi){1to8},%zmm0,%zmm25
    384a:	04 00 00 
    384d:	62 62 fd 58 b8 97 d0 	vfmadd231pd 0x6d0(%rdi){1to8},%zmm0,%zmm26
    3854:	06 00 00 
    3857:	62 62 fd 58 b8 9f d0 	vfmadd231pd 0x6d0(%rdi){1to8},%zmm0,%zmm27
    385e:	06 00 00 
    3861:	62 62 fd 58 b8 a7 c8 	vfmadd231pd 0x6c8(%rdi){1to8},%zmm0,%zmm28
    3868:	06 00 00 
    386b:	62 62 fd 58 b8 af c8 	vfmadd231pd 0x6c8(%rdi){1to8},%zmm0,%zmm29
    3872:	06 00 00 
    3875:	62 62 fd 58 bc b7 88 	vfnmadd231pd 0x688(%rdi){1to8},%zmm0,%zmm30
    387c:	06 00 00 
    387f:	62 62 fd 58 bc bf 88 	vfnmadd231pd 0x688(%rdi){1to8},%zmm0,%zmm31
    3886:	06 00 00 
    3889:	62 f1 fd 48 10 86 00 	vmovupd 0x10d8800(%rsi),%zmm0
    3890:	88 0d 01 
    3893:	62 62 fd 58 bc 87 c0 	vfnmadd231pd 0x4c0(%rdi){1to8},%zmm0,%zmm24
    389a:	04 00 00 
    389d:	62 62 fd 58 b8 8f b0 	vfmadd231pd 0x4b0(%rdi){1to8},%zmm0,%zmm25
    38a4:	04 00 00 
    38a7:	62 62 fd 58 b8 97 d8 	vfmadd231pd 0x6d8(%rdi){1to8},%zmm0,%zmm26
    38ae:	06 00 00 
    38b1:	62 62 fd 58 bc 9f 90 	vfnmadd231pd 0x690(%rdi){1to8},%zmm0,%zmm27
    38b8:	06 00 00 
    38bb:	62 62 fd 58 b8 a7 e0 	vfmadd231pd 0x6e0(%rdi){1to8},%zmm0,%zmm28
    38c2:	06 00 00 
    38c5:	62 62 fd 58 bc af a0 	vfnmadd231pd 0x6a0(%rdi){1to8},%zmm0,%zmm29
    38cc:	06 00 00 
    38cf:	62 62 fd 58 b8 b7 b0 	vfmadd231pd 0x6b0(%rdi){1to8},%zmm0,%zmm30
    38d6:	06 00 00 
    38d9:	62 62 fd 58 bc bf c0 	vfnmadd231pd 0x6c0(%rdi){1to8},%zmm0,%zmm31
    38e0:	06 00 00 
    38e3:	62 f1 fd 48 10 86 00 	vmovupd 0x1136400(%rsi),%zmm0
    38ea:	64 13 01 
    38ed:	62 62 fd 58 b8 87 b0 	vfmadd231pd 0x4b0(%rdi){1to8},%zmm0,%zmm24
    38f4:	04 00 00 
    38f7:	62 62 fd 58 b8 8f a0 	vfmadd231pd 0x4a0(%rdi){1to8},%zmm0,%zmm25
    38fe:	04 00 00 
    3901:	62 62 fd 58 b8 97 e0 	vfmadd231pd 0x6e0(%rdi){1to8},%zmm0,%zmm26
    3908:	06 00 00 
    390b:	62 62 fd 58 bc 9f c0 	vfnmadd231pd 0x6c0(%rdi){1to8},%zmm0,%zmm27
    3912:	06 00 00 
    3915:	62 62 fd 58 b8 a7 b0 	vfmadd231pd 0x6b0(%rdi){1to8},%zmm0,%zmm28
    391c:	06 00 00 
    391f:	62 62 fd 58 bc af 90 	vfnmadd231pd 0x690(%rdi){1to8},%zmm0,%zmm29
    3926:	06 00 00 
    3929:	62 62 fd 58 b8 b7 d8 	vfmadd231pd 0x6d8(%rdi){1to8},%zmm0,%zmm30
    3930:	06 00 00 
    3933:	62 62 fd 58 bc bf a0 	vfnmadd231pd 0x6a0(%rdi){1to8},%zmm0,%zmm31
    393a:	06 00 00 
    393d:	62 f1 fd 48 10 86 00 	vmovupd 0x1194000(%rsi),%zmm0
    3944:	40 19 01 
    3947:	62 62 fd 58 bc 87 00 	vfnmadd231pd 0x500(%rdi){1to8},%zmm0,%zmm24
    394e:	05 00 00 
    3951:	62 62 fd 58 b8 8f d0 	vfmadd231pd 0x4d0(%rdi){1to8},%zmm0,%zmm25
    3958:	04 00 00 
    395b:	62 62 fd 58 b8 97 e8 	vfmadd231pd 0x6e8(%rdi){1to8},%zmm0,%zmm26
    3962:	06 00 00 
    3965:	62 62 fd 58 b8 9f 28 	vfmadd231pd 0x728(%rdi){1to8},%zmm0,%zmm27
    396c:	07 00 00 
    396f:	62 62 fd 58 b8 a7 30 	vfmadd231pd 0x730(%rdi){1to8},%zmm0,%zmm28
    3976:	07 00 00 
    3979:	62 62 fd 58 b8 af e8 	vfmadd231pd 0x6e8(%rdi){1to8},%zmm0,%zmm29
    3980:	06 00 00 
    3983:	62 62 fd 58 b8 b7 28 	vfmadd231pd 0x728(%rdi){1to8},%zmm0,%zmm30
    398a:	07 00 00 
    398d:	62 62 fd 58 b8 bf 30 	vfmadd231pd 0x730(%rdi){1to8},%zmm0,%zmm31
    3994:	07 00 00 
    3997:	62 f1 fd 48 10 86 00 	vmovupd 0x11f1c00(%rsi),%zmm0
    399e:	1c 1f 01 
    39a1:	62 62 fd 58 b8 87 e8 	vfmadd231pd 0x4e8(%rdi){1to8},%zmm0,%zmm24
    39a8:	04 00 00 
    39ab:	62 62 fd 58 bc 8f f8 	vfnmadd231pd 0x4f8(%rdi){1to8},%zmm0,%zmm25
    39b2:	04 00 00 
    39b5:	62 62 fd 58 bc 97 f0 	vfnmadd231pd 0x6f0(%rdi){1to8},%zmm0,%zmm26
    39bc:	06 00 00 
    39bf:	62 62 fd 58 b8 9f 38 	vfmadd231pd 0x738(%rdi){1to8},%zmm0,%zmm27
    39c6:	07 00 00 
    39c9:	62 62 fd 58 bc a7 00 	vfnmadd231pd 0x700(%rdi){1to8},%zmm0,%zmm28
    39d0:	07 00 00 
    39d3:	62 62 fd 58 b8 af 40 	vfmadd231pd 0x740(%rdi){1to8},%zmm0,%zmm29
    39da:	07 00 00 
    39dd:	62 62 fd 58 bc b7 20 	vfnmadd231pd 0x720(%rdi){1to8},%zmm0,%zmm30
    39e4:	07 00 00 
    39e7:	62 62 fd 58 b8 bf 10 	vfmadd231pd 0x710(%rdi){1to8},%zmm0,%zmm31
    39ee:	07 00 00 
    39f1:	62 f1 fd 48 10 86 00 	vmovupd 0x124f800(%rsi),%zmm0
    39f8:	f8 24 01 
    39fb:	62 62 fd 58 bc 87 e0 	vfnmadd231pd 0x4e0(%rdi){1to8},%zmm0,%zmm24
    3a02:	04 00 00 
    3a05:	62 62 fd 58 b8 8f f0 	vfmadd231pd 0x4f0(%rdi){1to8},%zmm0,%zmm25
    3a0c:	04 00 00 
    3a0f:	62 62 fd 58 b8 97 f8 	vfmadd231pd 0x6f8(%rdi){1to8},%zmm0,%zmm26
    3a16:	06 00 00 
    3a19:	62 62 fd 58 b8 9f 18 	vfmadd231pd 0x718(%rdi){1to8},%zmm0,%zmm27
    3a20:	07 00 00 
    3a23:	62 62 fd 58 b8 a7 18 	vfmadd231pd 0x718(%rdi){1to8},%zmm0,%zmm28
    3a2a:	07 00 00 
    3a2d:	62 62 fd 58 bc af 08 	vfnmadd231pd 0x708(%rdi){1to8},%zmm0,%zmm29
    3a34:	07 00 00 
    3a37:	62 62 fd 58 bc b7 08 	vfnmadd231pd 0x708(%rdi){1to8},%zmm0,%zmm30
    3a3e:	07 00 00 
    3a41:	62 62 fd 58 b8 bf f8 	vfmadd231pd 0x6f8(%rdi){1to8},%zmm0,%zmm31
    3a48:	06 00 00 
    3a4b:	62 f1 fd 48 10 86 00 	vmovupd 0x12ad400(%rsi),%zmm0
    3a52:	d4 2a 01 
    3a55:	62 62 fd 58 bc 87 f8 	vfnmadd231pd 0x4f8(%rdi){1to8},%zmm0,%zmm24
    3a5c:	04 00 00 
    3a5f:	62 62 fd 58 b8 8f d8 	vfmadd231pd 0x4d8(%rdi){1to8},%zmm0,%zmm25
    3a66:	04 00 00 
    3a69:	62 62 fd 58 bc 97 00 	vfnmadd231pd 0x700(%rdi){1to8},%zmm0,%zmm26
    3a70:	07 00 00 
    3a73:	62 62 fd 58 b8 9f 10 	vfmadd231pd 0x710(%rdi){1to8},%zmm0,%zmm27
    3a7a:	07 00 00 
    3a7d:	62 62 fd 58 bc a7 20 	vfnmadd231pd 0x720(%rdi){1to8},%zmm0,%zmm28
    3a84:	07 00 00 
    3a87:	62 62 fd 58 b8 af 38 	vfmadd231pd 0x738(%rdi){1to8},%zmm0,%zmm29
    3a8e:	07 00 00 
    3a91:	62 62 fd 58 bc b7 f0 	vfnmadd231pd 0x6f0(%rdi){1to8},%zmm0,%zmm30
    3a98:	06 00 00 
    3a9b:	62 62 fd 58 b8 bf 40 	vfmadd231pd 0x740(%rdi){1to8},%zmm0,%zmm31
    3aa2:	07 00 00 
    3aa5:	62 f1 fd 48 10 86 00 	vmovupd 0x130b000(%rsi),%zmm0
    3aac:	b0 30 01 
    3aaf:	62 62 fd 58 bc 87 e0 	vfnmadd231pd 0x4e0(%rdi){1to8},%zmm0,%zmm24
    3ab6:	04 00 00 
    3ab9:	62 62 fd 58 bc 8f e0 	vfnmadd231pd 0x4e0(%rdi){1to8},%zmm0,%zmm25
    3ac0:	04 00 00 
    3ac3:	62 62 fd 58 bc 97 08 	vfnmadd231pd 0x708(%rdi){1to8},%zmm0,%zmm26
    3aca:	07 00 00 
    3acd:	62 62 fd 58 bc 9f 08 	vfnmadd231pd 0x708(%rdi){1to8},%zmm0,%zmm27
    3ad4:	07 00 00 
    3ad7:	62 62 fd 58 b8 a7 f8 	vfmadd231pd 0x6f8(%rdi){1to8},%zmm0,%zmm28
    3ade:	06 00 00 
    3ae1:	62 62 fd 58 b8 af f8 	vfmadd231pd 0x6f8(%rdi){1to8},%zmm0,%zmm29
    3ae8:	06 00 00 
    3aeb:	62 62 fd 58 b8 b7 18 	vfmadd231pd 0x718(%rdi){1to8},%zmm0,%zmm30
    3af2:	07 00 00 
    3af5:	62 62 fd 58 b8 bf 18 	vfmadd231pd 0x718(%rdi){1to8},%zmm0,%zmm31
    3afc:	07 00 00 
    3aff:	62 f1 fd 48 10 86 00 	vmovupd 0x1368c00(%rsi),%zmm0
    3b06:	8c 36 01 
    3b09:	62 62 fd 58 b8 87 d8 	vfmadd231pd 0x4d8(%rdi){1to8},%zmm0,%zmm24
    3b10:	04 00 00 
    3b13:	62 62 fd 58 bc 8f f8 	vfnmadd231pd 0x4f8(%rdi){1to8},%zmm0,%zmm25
    3b1a:	04 00 00 
    3b1d:	62 62 fd 58 b8 97 10 	vfmadd231pd 0x710(%rdi){1to8},%zmm0,%zmm26
    3b24:	07 00 00 
    3b27:	62 62 fd 58 bc 9f 00 	vfnmadd231pd 0x700(%rdi){1to8},%zmm0,%zmm27
    3b2e:	07 00 00 
    3b31:	62 62 fd 58 b8 a7 38 	vfmadd231pd 0x738(%rdi){1to8},%zmm0,%zmm28
    3b38:	07 00 00 
    3b3b:	62 62 fd 58 bc af 20 	vfnmadd231pd 0x720(%rdi){1to8},%zmm0,%zmm29
    3b42:	07 00 00 
    3b45:	62 62 fd 58 b8 b7 40 	vfmadd231pd 0x740(%rdi){1to8},%zmm0,%zmm30
    3b4c:	07 00 00 
    3b4f:	62 62 fd 58 bc bf f0 	vfnmadd231pd 0x6f0(%rdi){1to8},%zmm0,%zmm31
    3b56:	06 00 00 
    3b59:	62 f1 fd 48 10 86 00 	vmovupd 0x13c6800(%rsi),%zmm0
    3b60:	68 3c 01 
    3b63:	62 62 fd 58 b8 87 f0 	vfmadd231pd 0x4f0(%rdi){1to8},%zmm0,%zmm24
    3b6a:	04 00 00 
    3b6d:	62 62 fd 58 bc 8f e0 	vfnmadd231pd 0x4e0(%rdi){1to8},%zmm0,%zmm25
    3b74:	04 00 00 
    3b77:	62 62 fd 58 b8 97 18 	vfmadd231pd 0x718(%rdi){1to8},%zmm0,%zmm26
    3b7e:	07 00 00 
    3b81:	62 62 fd 58 b8 9f f8 	vfmadd231pd 0x6f8(%rdi){1to8},%zmm0,%zmm27
    3b88:	06 00 00 
    3b8b:	62 62 fd 58 bc a7 08 	vfnmadd231pd 0x708(%rdi){1to8},%zmm0,%zmm28
    3b92:	07 00 00 
    3b95:	62 62 fd 58 b8 af 18 	vfmadd231pd 0x718(%rdi){1to8},%zmm0,%zmm29
    3b9c:	07 00 00 
    3b9f:	62 62 fd 58 b8 b7 f8 	vfmadd231pd 0x6f8(%rdi){1to8},%zmm0,%zmm30
    3ba6:	06 00 00 
    3ba9:	62 62 fd 58 bc bf 08 	vfnmadd231pd 0x708(%rdi){1to8},%zmm0,%zmm31
    3bb0:	07 00 00 
    3bb3:	62 f1 fd 48 10 86 00 	vmovupd 0x1424400(%rsi),%zmm0
    3bba:	44 42 01 
    3bbd:	62 62 fd 58 b8 87 d8 	vfmadd231pd 0x4d8(%rdi){1to8},%zmm0,%zmm24
    3bc4:	04 00 00 
    3bc7:	62 62 fd 58 b8 8f e8 	vfmadd231pd 0x4e8(%rdi){1to8},%zmm0,%zmm25
    3bce:	04 00 00 
    3bd1:	62 62 fd 58 bc 97 20 	vfnmadd231pd 0x720(%rdi){1to8},%zmm0,%zmm26
    3bd8:	07 00 00 
    3bdb:	62 62 fd 58 b8 9f 40 	vfmadd231pd 0x740(%rdi){1to8},%zmm0,%zmm27
    3be2:	07 00 00 
    3be5:	62 62 fd 58 bc a7 f0 	vfnmadd231pd 0x6f0(%rdi){1to8},%zmm0,%zmm28
    3bec:	06 00 00 
    3bef:	62 62 fd 58 b8 af 10 	vfmadd231pd 0x710(%rdi){1to8},%zmm0,%zmm29
    3bf6:	07 00 00 
    3bf9:	62 62 fd 58 bc b7 00 	vfnmadd231pd 0x700(%rdi){1to8},%zmm0,%zmm30
    3c00:	07 00 00 
    3c03:	62 62 fd 58 b8 bf 38 	vfmadd231pd 0x738(%rdi){1to8},%zmm0,%zmm31
    3c0a:	07 00 00 
    3c0d:	62 f1 fd 48 10 86 00 	vmovupd 0x1482000(%rsi),%zmm0
    3c14:	20 48 01 
    3c17:	62 62 fd 58 b8 87 d0 	vfmadd231pd 0x4d0(%rdi){1to8},%zmm0,%zmm24
    3c1e:	04 00 00 
    3c21:	62 62 fd 58 bc 8f 00 	vfnmadd231pd 0x500(%rdi){1to8},%zmm0,%zmm25
    3c28:	05 00 00 
    3c2b:	62 62 fd 58 b8 97 28 	vfmadd231pd 0x728(%rdi){1to8},%zmm0,%zmm26
    3c32:	07 00 00 
    3c35:	62 62 fd 58 b8 9f e8 	vfmadd231pd 0x6e8(%rdi){1to8},%zmm0,%zmm27
    3c3c:	06 00 00 
    3c3f:	62 62 fd 58 b8 a7 e8 	vfmadd231pd 0x6e8(%rdi){1to8},%zmm0,%zmm28
    3c46:	06 00 00 
    3c49:	62 62 fd 58 b8 af 30 	vfmadd231pd 0x730(%rdi){1to8},%zmm0,%zmm29
    3c50:	07 00 00 
    3c53:	62 62 fd 58 b8 b7 30 	vfmadd231pd 0x730(%rdi){1to8},%zmm0,%zmm30
    3c5a:	07 00 00 
    3c5d:	62 62 fd 58 b8 bf 28 	vfmadd231pd 0x728(%rdi){1to8},%zmm0,%zmm31
    3c64:	07 00 00 
    3c67:	62 f1 fd 48 10 86 00 	vmovupd 0x14dfc00(%rsi),%zmm0
    3c6e:	fc 4d 01 
    3c71:	62 62 fd 58 b8 87 d0 	vfmadd231pd 0x4d0(%rdi){1to8},%zmm0,%zmm24
    3c78:	04 00 00 
    3c7b:	62 62 fd 58 b8 8f d0 	vfmadd231pd 0x4d0(%rdi){1to8},%zmm0,%zmm25
    3c82:	04 00 00 
    3c85:	62 62 fd 58 b8 97 30 	vfmadd231pd 0x730(%rdi){1to8},%zmm0,%zmm26
    3c8c:	07 00 00 
    3c8f:	62 62 fd 58 b8 9f 30 	vfmadd231pd 0x730(%rdi){1to8},%zmm0,%zmm27
    3c96:	07 00 00 
    3c99:	62 62 fd 58 b8 a7 28 	vfmadd231pd 0x728(%rdi){1to8},%zmm0,%zmm28
    3ca0:	07 00 00 
    3ca3:	62 62 fd 58 b8 af 28 	vfmadd231pd 0x728(%rdi){1to8},%zmm0,%zmm29
    3caa:	07 00 00 
    3cad:	62 62 fd 58 b8 b7 e8 	vfmadd231pd 0x6e8(%rdi){1to8},%zmm0,%zmm30
    3cb4:	06 00 00 
    3cb7:	62 62 fd 58 b8 bf e8 	vfmadd231pd 0x6e8(%rdi){1to8},%zmm0,%zmm31
    3cbe:	06 00 00 
    3cc1:	62 f1 fd 48 10 86 00 	vmovupd 0x153d800(%rsi),%zmm0
    3cc8:	d8 53 01 
    3ccb:	62 62 fd 58 bc 87 f8 	vfnmadd231pd 0x4f8(%rdi){1to8},%zmm0,%zmm24
    3cd2:	04 00 00 
    3cd5:	62 62 fd 58 b8 8f e8 	vfmadd231pd 0x4e8(%rdi){1to8},%zmm0,%zmm25
    3cdc:	04 00 00 
    3cdf:	62 62 fd 58 b8 97 38 	vfmadd231pd 0x738(%rdi){1to8},%zmm0,%zmm26
    3ce6:	07 00 00 
    3ce9:	62 62 fd 58 bc 9f f0 	vfnmadd231pd 0x6f0(%rdi){1to8},%zmm0,%zmm27
    3cf0:	06 00 00 
    3cf3:	62 62 fd 58 b8 a7 40 	vfmadd231pd 0x740(%rdi){1to8},%zmm0,%zmm28
    3cfa:	07 00 00 
    3cfd:	62 62 fd 58 bc af 00 	vfnmadd231pd 0x700(%rdi){1to8},%zmm0,%zmm29
    3d04:	07 00 00 
    3d07:	62 62 fd 58 b8 b7 10 	vfmadd231pd 0x710(%rdi){1to8},%zmm0,%zmm30
    3d0e:	07 00 00 
    3d11:	62 62 fd 58 bc bf 20 	vfnmadd231pd 0x720(%rdi){1to8},%zmm0,%zmm31
    3d18:	07 00 00 
    3d1b:	62 f1 fd 48 10 86 00 	vmovupd 0x159b400(%rsi),%zmm0
    3d22:	b4 59 01 
    3d25:	62 62 fd 58 b8 87 e8 	vfmadd231pd 0x4e8(%rdi){1to8},%zmm0,%zmm24
    3d2c:	04 00 00 
    3d2f:	62 62 fd 58 b8 8f d8 	vfmadd231pd 0x4d8(%rdi){1to8},%zmm0,%zmm25
    3d36:	04 00 00 
    3d39:	62 62 fd 58 b8 97 40 	vfmadd231pd 0x740(%rdi){1to8},%zmm0,%zmm26
    3d40:	07 00 00 
    3d43:	62 62 fd 58 bc 9f 20 	vfnmadd231pd 0x720(%rdi){1to8},%zmm0,%zmm27
    3d4a:	07 00 00 
    3d4d:	62 62 fd 58 b8 a7 10 	vfmadd231pd 0x710(%rdi){1to8},%zmm0,%zmm28
    3d54:	07 00 00 
    3d57:	62 62 fd 58 bc af f0 	vfnmadd231pd 0x6f0(%rdi){1to8},%zmm0,%zmm29
    3d5e:	06 00 00 
    3d61:	62 62 fd 58 b8 b7 38 	vfmadd231pd 0x738(%rdi){1to8},%zmm0,%zmm30
    3d68:	07 00 00 
    3d6b:	62 62 fd 58 bc bf 00 	vfnmadd231pd 0x700(%rdi){1to8},%zmm0,%zmm31
    3d72:	07 00 00 
    3d75:	62 f1 fd 48 10 86 00 	vmovupd 0x15f9000(%rsi),%zmm0
    3d7c:	90 5f 01 
    3d7f:	62 62 fd 58 b8 87 18 	vfmadd231pd 0x518(%rdi){1to8},%zmm0,%zmm24
    3d86:	05 00 00 
    3d89:	62 62 fd 58 bc 8f 48 	vfnmadd231pd 0x548(%rdi){1to8},%zmm0,%zmm25
    3d90:	05 00 00 
    3d93:	62 62 fd 58 b8 97 48 	vfmadd231pd 0x748(%rdi){1to8},%zmm0,%zmm26
    3d9a:	07 00 00 
    3d9d:	62 62 fd 58 bc 9f 88 	vfnmadd231pd 0x788(%rdi){1to8},%zmm0,%zmm27
    3da4:	07 00 00 
    3da7:	62 62 fd 58 bc a7 70 	vfnmadd231pd 0x770(%rdi){1to8},%zmm0,%zmm28
    3dae:	07 00 00 
    3db1:	62 62 fd 58 b8 af b0 	vfmadd231pd 0x7b0(%rdi){1to8},%zmm0,%zmm29
    3db8:	07 00 00 
    3dbb:	62 62 fd 58 bc b7 c0 	vfnmadd231pd 0x7c0(%rdi){1to8},%zmm0,%zmm30
    3dc2:	07 00 00 
    3dc5:	62 62 fd 58 bc bf 58 	vfnmadd231pd 0x758(%rdi){1to8},%zmm0,%zmm31
    3dcc:	07 00 00 
    3dcf:	62 f1 fd 48 10 86 00 	vmovupd 0x1656c00(%rsi),%zmm0
    3dd6:	6c 65 01 
    3dd9:	62 62 fd 58 b8 87 40 	vfmadd231pd 0x540(%rdi){1to8},%zmm0,%zmm24
    3de0:	05 00 00 
    3de3:	62 62 fd 58 bc 8f 38 	vfnmadd231pd 0x538(%rdi){1to8},%zmm0,%zmm25
    3dea:	05 00 00 
    3ded:	62 62 fd 58 b8 97 50 	vfmadd231pd 0x750(%rdi){1to8},%zmm0,%zmm26
    3df4:	07 00 00 
    3df7:	62 62 fd 58 b8 9f e0 	vfmadd231pd 0x7e0(%rdi){1to8},%zmm0,%zmm27
    3dfe:	07 00 00 
    3e01:	62 62 fd 58 bc a7 a8 	vfnmadd231pd 0x7a8(%rdi){1to8},%zmm0,%zmm28
    3e08:	07 00 00 
    3e0b:	62 62 fd 58 bc af d0 	vfnmadd231pd 0x7d0(%rdi){1to8},%zmm0,%zmm29
    3e12:	07 00 00 
    3e15:	62 62 fd 58 bc b7 80 	vfnmadd231pd 0x780(%rdi){1to8},%zmm0,%zmm30
    3e1c:	07 00 00 
    3e1f:	62 62 fd 58 bc bf a0 	vfnmadd231pd 0x7a0(%rdi){1to8},%zmm0,%zmm31
    3e26:	07 00 00 
    3e29:	62 f1 fd 48 10 86 00 	vmovupd 0x16b4800(%rsi),%zmm0
    3e30:	48 6b 01 
    3e33:	62 62 fd 58 bc 87 08 	vfnmadd231pd 0x508(%rdi){1to8},%zmm0,%zmm24
    3e3a:	05 00 00 
    3e3d:	62 62 fd 58 bc 8f 48 	vfnmadd231pd 0x548(%rdi){1to8},%zmm0,%zmm25
    3e44:	05 00 00 
    3e47:	62 62 fd 58 bc 97 58 	vfnmadd231pd 0x758(%rdi){1to8},%zmm0,%zmm26
    3e4e:	07 00 00 
    3e51:	62 62 fd 58 bc 9f 70 	vfnmadd231pd 0x770(%rdi){1to8},%zmm0,%zmm27
    3e58:	07 00 00 
    3e5b:	62 62 fd 58 bc a7 88 	vfnmadd231pd 0x788(%rdi){1to8},%zmm0,%zmm28
    3e62:	07 00 00 
    3e65:	62 62 fd 58 bc af c0 	vfnmadd231pd 0x7c0(%rdi){1to8},%zmm0,%zmm29
    3e6c:	07 00 00 
    3e6f:	62 62 fd 58 b8 b7 b0 	vfmadd231pd 0x7b0(%rdi){1to8},%zmm0,%zmm30
    3e76:	07 00 00 
    3e79:	62 62 fd 58 b8 bf 48 	vfmadd231pd 0x748(%rdi){1to8},%zmm0,%zmm31
    3e80:	07 00 00 
    3e83:	62 f1 fd 48 10 86 00 	vmovupd 0x1712400(%rsi),%zmm0
    3e8a:	24 71 01 
    3e8d:	62 62 fd 58 b8 87 58 	vfmadd231pd 0x558(%rdi){1to8},%zmm0,%zmm24
    3e94:	05 00 00 
    3e97:	62 62 fd 58 b8 8f 30 	vfmadd231pd 0x530(%rdi){1to8},%zmm0,%zmm25
    3e9e:	05 00 00 
    3ea1:	62 62 fd 58 b8 97 60 	vfmadd231pd 0x760(%rdi){1to8},%zmm0,%zmm26
    3ea8:	07 00 00 
    3eab:	62 62 fd 58 bc 9f d8 	vfnmadd231pd 0x7d8(%rdi){1to8},%zmm0,%zmm27
    3eb2:	07 00 00 
    3eb5:	62 62 fd 58 b8 a7 f8 	vfmadd231pd 0x7f8(%rdi){1to8},%zmm0,%zmm28
    3ebc:	07 00 00 
    3ebf:	62 62 fd 58 bc af 78 	vfnmadd231pd 0x778(%rdi){1to8},%zmm0,%zmm29
    3ec6:	07 00 00 
    3ec9:	62 62 fd 58 b8 b7 90 	vfmadd231pd 0x790(%rdi){1to8},%zmm0,%zmm30
    3ed0:	07 00 00 
    3ed3:	62 62 fd 58 bc bf e8 	vfnmadd231pd 0x7e8(%rdi){1to8},%zmm0,%zmm31
    3eda:	07 00 00 
    3edd:	62 f1 fd 48 10 86 00 	vmovupd 0x1770000(%rsi),%zmm0
    3ee4:	00 77 01 
    3ee7:	62 62 fd 58 b8 87 60 	vfmadd231pd 0x560(%rdi){1to8},%zmm0,%zmm24
    3eee:	05 00 00 
    3ef1:	62 62 fd 58 bc 8f 50 	vfnmadd231pd 0x550(%rdi){1to8},%zmm0,%zmm25
    3ef8:	05 00 00 
    3efb:	62 62 fd 58 b8 97 68 	vfmadd231pd 0x768(%rdi){1to8},%zmm0,%zmm26
    3f02:	07 00 00 
    3f05:	62 62 fd 58 bc 9f 98 	vfnmadd231pd 0x798(%rdi){1to8},%zmm0,%zmm27
    3f0c:	07 00 00 
    3f0f:	62 62 fd 58 b8 a7 00 	vfmadd231pd 0x800(%rdi){1to8},%zmm0,%zmm28
    3f16:	08 00 00 
    3f19:	62 62 fd 58 bc af b8 	vfnmadd231pd 0x7b8(%rdi){1to8},%zmm0,%zmm29
    3f20:	07 00 00 
    3f23:	62 62 fd 58 b8 b7 c8 	vfmadd231pd 0x7c8(%rdi){1to8},%zmm0,%zmm30
    3f2a:	07 00 00 
    3f2d:	62 62 fd 58 bc bf f0 	vfnmadd231pd 0x7f0(%rdi){1to8},%zmm0,%zmm31
    3f34:	07 00 00 
    3f37:	62 f1 fd 48 10 86 00 	vmovupd 0x17cdc00(%rsi),%zmm0
    3f3e:	dc 7c 01 
    3f41:	62 62 fd 58 bc 87 48 	vfnmadd231pd 0x548(%rdi){1to8},%zmm0,%zmm24
    3f48:	05 00 00 
    3f4b:	62 62 fd 58 bc 8f 08 	vfnmadd231pd 0x508(%rdi){1to8},%zmm0,%zmm25
    3f52:	05 00 00 
    3f55:	62 62 fd 58 bc 97 70 	vfnmadd231pd 0x770(%rdi){1to8},%zmm0,%zmm26
    3f5c:	07 00 00 
    3f5f:	62 62 fd 58 bc 9f 58 	vfnmadd231pd 0x758(%rdi){1to8},%zmm0,%zmm27
    3f66:	07 00 00 
    3f69:	62 62 fd 58 bc a7 c0 	vfnmadd231pd 0x7c0(%rdi){1to8},%zmm0,%zmm28
    3f70:	07 00 00 
    3f73:	62 62 fd 58 bc af 88 	vfnmadd231pd 0x788(%rdi){1to8},%zmm0,%zmm29
    3f7a:	07 00 00 
    3f7d:	62 62 fd 58 b8 b7 48 	vfmadd231pd 0x748(%rdi){1to8},%zmm0,%zmm30
    3f84:	07 00 00 
    3f87:	62 62 fd 58 b8 bf b0 	vfmadd231pd 0x7b0(%rdi){1to8},%zmm0,%zmm31
    3f8e:	07 00 00 
    3f91:	62 f1 fd 48 10 86 00 	vmovupd 0x182b800(%rsi),%zmm0
    3f98:	b8 82 01 
    3f9b:	62 62 fd 58 b8 87 58 	vfmadd231pd 0x558(%rdi){1to8},%zmm0,%zmm24
    3fa2:	05 00 00 
    3fa5:	62 62 fd 58 bc 8f 20 	vfnmadd231pd 0x520(%rdi){1to8},%zmm0,%zmm25
    3fac:	05 00 00 
    3faf:	62 62 fd 58 bc 97 78 	vfnmadd231pd 0x778(%rdi){1to8},%zmm0,%zmm26
    3fb6:	07 00 00 
    3fb9:	62 62 fd 58 b8 9f 90 	vfmadd231pd 0x790(%rdi){1to8},%zmm0,%zmm27
    3fc0:	07 00 00 
    3fc3:	62 62 fd 58 bc a7 e8 	vfnmadd231pd 0x7e8(%rdi){1to8},%zmm0,%zmm28
    3fca:	07 00 00 
    3fcd:	62 62 fd 58 b8 af 60 	vfmadd231pd 0x760(%rdi){1to8},%zmm0,%zmm29
    3fd4:	07 00 00 
    3fd7:	62 62 fd 58 bc b7 d8 	vfnmadd231pd 0x7d8(%rdi){1to8},%zmm0,%zmm30
    3fde:	07 00 00 
    3fe1:	62 62 fd 58 b8 bf f8 	vfmadd231pd 0x7f8(%rdi){1to8},%zmm0,%zmm31
    3fe8:	07 00 00 
    3feb:	62 f1 fd 48 10 86 00 	vmovupd 0x1889400(%rsi),%zmm0
    3ff2:	94 88 01 
    3ff5:	62 62 fd 58 bc 87 10 	vfnmadd231pd 0x510(%rdi){1to8},%zmm0,%zmm24
    3ffc:	05 00 00 
    3fff:	62 62 fd 58 b8 8f 40 	vfmadd231pd 0x540(%rdi){1to8},%zmm0,%zmm25
    4006:	05 00 00 
    4009:	62 62 fd 58 bc 97 80 	vfnmadd231pd 0x780(%rdi){1to8},%zmm0,%zmm26
    4010:	07 00 00 
    4013:	62 62 fd 58 bc 9f d0 	vfnmadd231pd 0x7d0(%rdi){1to8},%zmm0,%zmm27
    401a:	07 00 00 
    401d:	62 62 fd 58 b8 a7 50 	vfmadd231pd 0x750(%rdi){1to8},%zmm0,%zmm28
    4024:	07 00 00 
    4027:	62 62 fd 58 bc af a0 	vfnmadd231pd 0x7a0(%rdi){1to8},%zmm0,%zmm29
    402e:	07 00 00 
    4031:	62 62 fd 58 bc b7 a8 	vfnmadd231pd 0x7a8(%rdi){1to8},%zmm0,%zmm30
    4038:	07 00 00 
    403b:	62 62 fd 58 b8 bf e0 	vfmadd231pd 0x7e0(%rdi){1to8},%zmm0,%zmm31
    4042:	07 00 00 
    4045:	62 f1 fd 48 10 86 00 	vmovupd 0x18e7000(%rsi),%zmm0
    404c:	70 8e 01 
    404f:	62 62 fd 58 bc 87 48 	vfnmadd231pd 0x548(%rdi){1to8},%zmm0,%zmm24
    4056:	05 00 00 
    4059:	62 62 fd 58 b8 8f 18 	vfmadd231pd 0x518(%rdi){1to8},%zmm0,%zmm25
    4060:	05 00 00 
    4063:	62 62 fd 58 bc 97 88 	vfnmadd231pd 0x788(%rdi){1to8},%zmm0,%zmm26
    406a:	07 00 00 
    406d:	62 62 fd 58 b8 9f 48 	vfmadd231pd 0x748(%rdi){1to8},%zmm0,%zmm27
    4074:	07 00 00 
    4077:	62 62 fd 58 b8 a7 b0 	vfmadd231pd 0x7b0(%rdi){1to8},%zmm0,%zmm28
    407e:	07 00 00 
    4081:	62 62 fd 58 bc af 70 	vfnmadd231pd 0x770(%rdi){1to8},%zmm0,%zmm29
    4088:	07 00 00 
    408b:	62 62 fd 58 bc b7 58 	vfnmadd231pd 0x758(%rdi){1to8},%zmm0,%zmm30
    4092:	07 00 00 
    4095:	62 62 fd 58 bc bf c0 	vfnmadd231pd 0x7c0(%rdi){1to8},%zmm0,%zmm31
    409c:	07 00 00 
    409f:	62 f1 fd 48 10 86 00 	vmovupd 0x1944c00(%rsi),%zmm0
    40a6:	4c 94 01 
    40a9:	62 62 fd 58 bc 87 20 	vfnmadd231pd 0x520(%rdi){1to8},%zmm0,%zmm24
    40b0:	05 00 00 
    40b3:	62 62 fd 58 b8 8f 58 	vfmadd231pd 0x558(%rdi){1to8},%zmm0,%zmm25
    40ba:	05 00 00 
    40bd:	62 62 fd 58 b8 97 90 	vfmadd231pd 0x790(%rdi){1to8},%zmm0,%zmm26
    40c4:	07 00 00 
    40c7:	62 62 fd 58 bc 9f 78 	vfnmadd231pd 0x778(%rdi){1to8},%zmm0,%zmm27
    40ce:	07 00 00 
    40d1:	62 62 fd 58 b8 a7 60 	vfmadd231pd 0x760(%rdi){1to8},%zmm0,%zmm28
    40d8:	07 00 00 
    40db:	62 62 fd 58 bc af e8 	vfnmadd231pd 0x7e8(%rdi){1to8},%zmm0,%zmm29
    40e2:	07 00 00 
    40e5:	62 62 fd 58 b8 b7 f8 	vfmadd231pd 0x7f8(%rdi){1to8},%zmm0,%zmm30
    40ec:	07 00 00 
    40ef:	62 62 fd 58 bc bf d8 	vfnmadd231pd 0x7d8(%rdi){1to8},%zmm0,%zmm31
    40f6:	07 00 00 
    40f9:	62 f1 fd 48 10 86 00 	vmovupd 0x19a2800(%rsi),%zmm0
    4100:	28 9a 01 
    4103:	62 62 fd 58 bc 87 50 	vfnmadd231pd 0x550(%rdi){1to8},%zmm0,%zmm24
    410a:	05 00 00 
    410d:	62 62 fd 58 b8 8f 60 	vfmadd231pd 0x560(%rdi){1to8},%zmm0,%zmm25
    4114:	05 00 00 
    4117:	62 62 fd 58 bc 97 98 	vfnmadd231pd 0x798(%rdi){1to8},%zmm0,%zmm26
    411e:	07 00 00 
    4121:	62 62 fd 58 b8 9f 68 	vfmadd231pd 0x768(%rdi){1to8},%zmm0,%zmm27
    4128:	07 00 00 
    412b:	62 62 fd 58 bc a7 b8 	vfnmadd231pd 0x7b8(%rdi){1to8},%zmm0,%zmm28
    4132:	07 00 00 
    4135:	62 62 fd 58 b8 af 00 	vfmadd231pd 0x800(%rdi){1to8},%zmm0,%zmm29
    413c:	08 00 00 
    413f:	62 62 fd 58 bc b7 f0 	vfnmadd231pd 0x7f0(%rdi){1to8},%zmm0,%zmm30
    4146:	07 00 00 
    4149:	62 62 fd 58 b8 bf c8 	vfmadd231pd 0x7c8(%rdi){1to8},%zmm0,%zmm31
    4150:	07 00 00 
    4153:	62 f1 fd 48 10 86 00 	vmovupd 0x1a00400(%rsi),%zmm0
    415a:	04 a0 01 
    415d:	62 62 fd 58 bc 87 10 	vfnmadd231pd 0x510(%rdi){1to8},%zmm0,%zmm24
    4164:	05 00 00 
    4167:	62 62 fd 58 bc 8f 38 	vfnmadd231pd 0x538(%rdi){1to8},%zmm0,%zmm25
    416e:	05 00 00 
    4171:	62 62 fd 58 bc 97 a0 	vfnmadd231pd 0x7a0(%rdi){1to8},%zmm0,%zmm26
    4178:	07 00 00 
    417b:	62 62 fd 58 bc 9f a8 	vfnmadd231pd 0x7a8(%rdi){1to8},%zmm0,%zmm27
    4182:	07 00 00 
    4185:	62 62 fd 58 b8 a7 e0 	vfmadd231pd 0x7e0(%rdi){1to8},%zmm0,%zmm28
    418c:	07 00 00 
    418f:	62 62 fd 58 bc af 80 	vfnmadd231pd 0x780(%rdi){1to8},%zmm0,%zmm29
    4196:	07 00 00 
    4199:	62 62 fd 58 bc b7 d0 	vfnmadd231pd 0x7d0(%rdi){1to8},%zmm0,%zmm30
    41a0:	07 00 00 
    41a3:	62 62 fd 58 b8 bf 50 	vfmadd231pd 0x750(%rdi){1to8},%zmm0,%zmm31
    41aa:	07 00 00 
    41ad:	62 f1 fd 48 10 86 00 	vmovupd 0x1a5e000(%rsi),%zmm0
    41b4:	e0 a5 01 
    41b7:	62 62 fd 58 bc 87 38 	vfnmadd231pd 0x538(%rdi){1to8},%zmm0,%zmm24
    41be:	05 00 00 
    41c1:	62 62 fd 58 bc 8f 10 	vfnmadd231pd 0x510(%rdi){1to8},%zmm0,%zmm25
    41c8:	05 00 00 
    41cb:	62 62 fd 58 bc 97 a8 	vfnmadd231pd 0x7a8(%rdi){1to8},%zmm0,%zmm26
    41d2:	07 00 00 
    41d5:	62 62 fd 58 bc 9f a0 	vfnmadd231pd 0x7a0(%rdi){1to8},%zmm0,%zmm27
    41dc:	07 00 00 
    41df:	62 62 fd 58 bc a7 80 	vfnmadd231pd 0x780(%rdi){1to8},%zmm0,%zmm28
    41e6:	07 00 00 
    41e9:	62 62 fd 58 b8 af e0 	vfmadd231pd 0x7e0(%rdi){1to8},%zmm0,%zmm29
    41f0:	07 00 00 
    41f3:	62 62 fd 58 b8 b7 50 	vfmadd231pd 0x750(%rdi){1to8},%zmm0,%zmm30
    41fa:	07 00 00 
    41fd:	62 62 fd 58 bc bf d0 	vfnmadd231pd 0x7d0(%rdi){1to8},%zmm0,%zmm31
    4204:	07 00 00 
    4207:	62 f1 fd 48 10 86 00 	vmovupd 0x1abbc00(%rsi),%zmm0
    420e:	bc ab 01 
    4211:	62 62 fd 58 b8 87 18 	vfmadd231pd 0x518(%rdi){1to8},%zmm0,%zmm24
    4218:	05 00 00 
    421b:	62 62 fd 58 bc 8f 08 	vfnmadd231pd 0x508(%rdi){1to8},%zmm0,%zmm25
    4222:	05 00 00 
    4225:	62 62 fd 58 b8 97 b0 	vfmadd231pd 0x7b0(%rdi){1to8},%zmm0,%zmm26
    422c:	07 00 00 
    422f:	62 62 fd 58 bc 9f c0 	vfnmadd231pd 0x7c0(%rdi){1to8},%zmm0,%zmm27
    4236:	07 00 00 
    4239:	62 62 fd 58 bc a7 58 	vfnmadd231pd 0x758(%rdi){1to8},%zmm0,%zmm28
    4240:	07 00 00 
    4243:	62 62 fd 58 b8 af 48 	vfmadd231pd 0x748(%rdi){1to8},%zmm0,%zmm29
    424a:	07 00 00 
    424d:	62 62 fd 58 bc b7 88 	vfnmadd231pd 0x788(%rdi){1to8},%zmm0,%zmm30
    4254:	07 00 00 
    4257:	62 62 fd 58 bc bf 70 	vfnmadd231pd 0x770(%rdi){1to8},%zmm0,%zmm31
    425e:	07 00 00 
    4261:	62 f1 fd 48 10 86 00 	vmovupd 0x1b19800(%rsi),%zmm0
    4268:	98 b1 01 
    426b:	62 62 fd 58 b8 87 60 	vfmadd231pd 0x560(%rdi){1to8},%zmm0,%zmm24
    4272:	05 00 00 
    4275:	62 62 fd 58 bc 8f 28 	vfnmadd231pd 0x528(%rdi){1to8},%zmm0,%zmm25
    427c:	05 00 00 
    427f:	62 62 fd 58 bc 97 b8 	vfnmadd231pd 0x7b8(%rdi){1to8},%zmm0,%zmm26
    4286:	07 00 00 
    4289:	62 62 fd 58 b8 9f c8 	vfmadd231pd 0x7c8(%rdi){1to8},%zmm0,%zmm27
    4290:	07 00 00 
    4293:	62 62 fd 58 bc a7 f0 	vfnmadd231pd 0x7f0(%rdi){1to8},%zmm0,%zmm28
    429a:	07 00 00 
    429d:	62 62 fd 58 b8 af 68 	vfmadd231pd 0x768(%rdi){1to8},%zmm0,%zmm29
    42a4:	07 00 00 
    42a7:	62 62 fd 58 bc b7 98 	vfnmadd231pd 0x798(%rdi){1to8},%zmm0,%zmm30
    42ae:	07 00 00 
    42b1:	62 62 fd 58 b8 bf 00 	vfmadd231pd 0x800(%rdi){1to8},%zmm0,%zmm31
    42b8:	08 00 00 
    42bb:	62 f1 fd 48 10 86 00 	vmovupd 0x1b77400(%rsi),%zmm0
    42c2:	74 b7 01 
    42c5:	62 62 fd 58 bc 87 08 	vfnmadd231pd 0x508(%rdi){1to8},%zmm0,%zmm24
    42cc:	05 00 00 
    42cf:	62 62 fd 58 b8 8f 18 	vfmadd231pd 0x518(%rdi){1to8},%zmm0,%zmm25
    42d6:	05 00 00 
    42d9:	62 62 fd 58 bc 97 c0 	vfnmadd231pd 0x7c0(%rdi){1to8},%zmm0,%zmm26
    42e0:	07 00 00 
    42e3:	62 62 fd 58 b8 9f b0 	vfmadd231pd 0x7b0(%rdi){1to8},%zmm0,%zmm27
    42ea:	07 00 00 
    42ed:	62 62 fd 58 b8 a7 48 	vfmadd231pd 0x748(%rdi){1to8},%zmm0,%zmm28
    42f4:	07 00 00 
    42f7:	62 62 fd 58 bc af 58 	vfnmadd231pd 0x758(%rdi){1to8},%zmm0,%zmm29
    42fe:	07 00 00 
    4301:	62 62 fd 58 bc b7 70 	vfnmadd231pd 0x770(%rdi){1to8},%zmm0,%zmm30
    4308:	07 00 00 
    430b:	62 62 fd 58 bc bf 88 	vfnmadd231pd 0x788(%rdi){1to8},%zmm0,%zmm31
    4312:	07 00 00 
    4315:	62 f1 fd 48 10 86 00 	vmovupd 0x1bd5000(%rsi),%zmm0
    431c:	50 bd 01 
    431f:	62 62 fd 58 bc 87 28 	vfnmadd231pd 0x528(%rdi){1to8},%zmm0,%zmm24
    4326:	05 00 00 
    4329:	62 62 fd 58 b8 8f 60 	vfmadd231pd 0x560(%rdi){1to8},%zmm0,%zmm25
    4330:	05 00 00 
    4333:	62 62 fd 58 b8 97 c8 	vfmadd231pd 0x7c8(%rdi){1to8},%zmm0,%zmm26
    433a:	07 00 00 
    433d:	62 62 fd 58 bc 9f b8 	vfnmadd231pd 0x7b8(%rdi){1to8},%zmm0,%zmm27
    4344:	07 00 00 
    4347:	62 62 fd 58 b8 a7 68 	vfmadd231pd 0x768(%rdi){1to8},%zmm0,%zmm28
    434e:	07 00 00 
    4351:	62 62 fd 58 bc af f0 	vfnmadd231pd 0x7f0(%rdi){1to8},%zmm0,%zmm29
    4358:	07 00 00 
    435b:	62 62 fd 58 b8 b7 00 	vfmadd231pd 0x800(%rdi){1to8},%zmm0,%zmm30
    4362:	08 00 00 
    4365:	62 62 fd 58 bc bf 98 	vfnmadd231pd 0x798(%rdi){1to8},%zmm0,%zmm31
    436c:	07 00 00 
    436f:	62 f1 fd 48 10 86 00 	vmovupd 0x1c32c00(%rsi),%zmm0
    4376:	2c c3 01 
    4379:	62 62 fd 58 b8 87 40 	vfmadd231pd 0x540(%rdi){1to8},%zmm0,%zmm24
    4380:	05 00 00 
    4383:	62 62 fd 58 bc 8f 10 	vfnmadd231pd 0x510(%rdi){1to8},%zmm0,%zmm25
    438a:	05 00 00 
    438d:	62 62 fd 58 bc 97 d0 	vfnmadd231pd 0x7d0(%rdi){1to8},%zmm0,%zmm26
    4394:	07 00 00 
    4397:	62 62 fd 58 bc 9f 80 	vfnmadd231pd 0x780(%rdi){1to8},%zmm0,%zmm27
    439e:	07 00 00 
    43a1:	62 62 fd 58 bc a7 a0 	vfnmadd231pd 0x7a0(%rdi){1to8},%zmm0,%zmm28
    43a8:	07 00 00 
    43ab:	62 62 fd 58 b8 af 50 	vfmadd231pd 0x750(%rdi){1to8},%zmm0,%zmm29
    43b2:	07 00 00 
    43b5:	62 62 fd 58 b8 b7 e0 	vfmadd231pd 0x7e0(%rdi){1to8},%zmm0,%zmm30
    43bc:	07 00 00 
    43bf:	62 62 fd 58 bc bf a8 	vfnmadd231pd 0x7a8(%rdi){1to8},%zmm0,%zmm31
    43c6:	07 00 00 
    43c9:	62 f1 fd 48 10 86 00 	vmovupd 0x1c90800(%rsi),%zmm0
    43d0:	08 c9 01 
    43d3:	62 62 fd 58 b8 87 30 	vfmadd231pd 0x530(%rdi){1to8},%zmm0,%zmm24
    43da:	05 00 00 
    43dd:	62 62 fd 58 b8 8f 58 	vfmadd231pd 0x558(%rdi){1to8},%zmm0,%zmm25
    43e4:	05 00 00 
    43e7:	62 62 fd 58 bc 97 d8 	vfnmadd231pd 0x7d8(%rdi){1to8},%zmm0,%zmm26
    43ee:	07 00 00 
    43f1:	62 62 fd 58 b8 9f 60 	vfmadd231pd 0x760(%rdi){1to8},%zmm0,%zmm27
    43f8:	07 00 00 
    43fb:	62 62 fd 58 bc a7 78 	vfnmadd231pd 0x778(%rdi){1to8},%zmm0,%zmm28
    4402:	07 00 00 
    4405:	62 62 fd 58 b8 af f8 	vfmadd231pd 0x7f8(%rdi){1to8},%zmm0,%zmm29
    440c:	07 00 00 
    440f:	62 62 fd 58 bc b7 e8 	vfnmadd231pd 0x7e8(%rdi){1to8},%zmm0,%zmm30
    4416:	07 00 00 
    4419:	62 62 fd 58 b8 bf 90 	vfmadd231pd 0x790(%rdi){1to8},%zmm0,%zmm31
    4420:	07 00 00 
    4423:	62 f1 fd 48 10 86 00 	vmovupd 0x1cee400(%rsi),%zmm0
    442a:	e4 ce 01 
    442d:	62 62 fd 58 bc 87 38 	vfnmadd231pd 0x538(%rdi){1to8},%zmm0,%zmm24
    4434:	05 00 00 
    4437:	62 62 fd 58 b8 8f 40 	vfmadd231pd 0x540(%rdi){1to8},%zmm0,%zmm25
    443e:	05 00 00 
    4441:	62 62 fd 58 b8 97 e0 	vfmadd231pd 0x7e0(%rdi){1to8},%zmm0,%zmm26
    4448:	07 00 00 
    444b:	62 62 fd 58 b8 9f 50 	vfmadd231pd 0x750(%rdi){1to8},%zmm0,%zmm27
    4452:	07 00 00 
    4455:	62 62 fd 58 bc a7 d0 	vfnmadd231pd 0x7d0(%rdi){1to8},%zmm0,%zmm28
    445c:	07 00 00 
    445f:	62 62 fd 58 bc af a8 	vfnmadd231pd 0x7a8(%rdi){1to8},%zmm0,%zmm29
    4466:	07 00 00 
    4469:	62 62 fd 58 bc b7 a0 	vfnmadd231pd 0x7a0(%rdi){1to8},%zmm0,%zmm30
    4470:	07 00 00 
    4473:	62 62 fd 58 bc bf 80 	vfnmadd231pd 0x780(%rdi){1to8},%zmm0,%zmm31
    447a:	07 00 00 
    447d:	62 f1 fd 48 10 86 00 	vmovupd 0x1d4c000(%rsi),%zmm0
    4484:	c0 d4 01 
    4487:	62 62 fd 58 bc 87 20 	vfnmadd231pd 0x520(%rdi){1to8},%zmm0,%zmm24
    448e:	05 00 00 
    4491:	62 62 fd 58 b8 8f 30 	vfmadd231pd 0x530(%rdi){1to8},%zmm0,%zmm25
    4498:	05 00 00 
    449b:	62 62 fd 58 bc 97 e8 	vfnmadd231pd 0x7e8(%rdi){1to8},%zmm0,%zmm26
    44a2:	07 00 00 
    44a5:	62 62 fd 58 b8 9f f8 	vfmadd231pd 0x7f8(%rdi){1to8},%zmm0,%zmm27
    44ac:	07 00 00 
    44af:	62 62 fd 58 bc a7 d8 	vfnmadd231pd 0x7d8(%rdi){1to8},%zmm0,%zmm28
    44b6:	07 00 00 
    44b9:	62 62 fd 58 b8 af 90 	vfmadd231pd 0x790(%rdi){1to8},%zmm0,%zmm29
    44c0:	07 00 00 
    44c3:	62 62 fd 58 bc b7 78 	vfnmadd231pd 0x778(%rdi){1to8},%zmm0,%zmm30
    44ca:	07 00 00 
    44cd:	62 62 fd 58 b8 bf 60 	vfmadd231pd 0x760(%rdi){1to8},%zmm0,%zmm31
    44d4:	07 00 00 
    44d7:	62 f1 fd 48 10 86 00 	vmovupd 0x1da9c00(%rsi),%zmm0
    44de:	9c da 01 
    44e1:	62 62 fd 58 bc 87 28 	vfnmadd231pd 0x528(%rdi){1to8},%zmm0,%zmm24
    44e8:	05 00 00 
    44eb:	62 62 fd 58 bc 8f 50 	vfnmadd231pd 0x550(%rdi){1to8},%zmm0,%zmm25
    44f2:	05 00 00 
    44f5:	62 62 fd 58 bc 97 f0 	vfnmadd231pd 0x7f0(%rdi){1to8},%zmm0,%zmm26
    44fc:	07 00 00 
    44ff:	62 62 fd 58 b8 9f 00 	vfmadd231pd 0x800(%rdi){1to8},%zmm0,%zmm27
    4506:	08 00 00 
    4509:	62 62 fd 58 bc a7 98 	vfnmadd231pd 0x798(%rdi){1to8},%zmm0,%zmm28
    4510:	07 00 00 
    4513:	62 62 fd 58 b8 af c8 	vfmadd231pd 0x7c8(%rdi){1to8},%zmm0,%zmm29
    451a:	07 00 00 
    451d:	62 62 fd 58 bc b7 b8 	vfnmadd231pd 0x7b8(%rdi){1to8},%zmm0,%zmm30
    4524:	07 00 00 
    4527:	62 62 fd 58 b8 bf 68 	vfmadd231pd 0x768(%rdi){1to8},%zmm0,%zmm31
    452e:	07 00 00 
    4531:	62 f1 fd 48 10 86 00 	vmovupd 0x1e07800(%rsi),%zmm0
    4538:	78 e0 01 
    453b:	62 62 fd 58 b8 87 30 	vfmadd231pd 0x530(%rdi){1to8},%zmm0,%zmm24
    4542:	05 00 00 
    4545:	62 62 fd 58 bc 8f 20 	vfnmadd231pd 0x520(%rdi){1to8},%zmm0,%zmm25
    454c:	05 00 00 
    454f:	62 62 fd 58 b8 97 f8 	vfmadd231pd 0x7f8(%rdi){1to8},%zmm0,%zmm26
    4556:	07 00 00 
    4559:	62 62 fd 58 bc 9f e8 	vfnmadd231pd 0x7e8(%rdi){1to8},%zmm0,%zmm27
    4560:	07 00 00 
    4563:	62 62 fd 58 b8 a7 90 	vfmadd231pd 0x790(%rdi){1to8},%zmm0,%zmm28
    456a:	07 00 00 
    456d:	62 62 fd 58 bc af d8 	vfnmadd231pd 0x7d8(%rdi){1to8},%zmm0,%zmm29
    4574:	07 00 00 
    4577:	62 62 fd 58 b8 b7 60 	vfmadd231pd 0x760(%rdi){1to8},%zmm0,%zmm30
    457e:	07 00 00 
    4581:	62 62 fd 58 bc bf 78 	vfnmadd231pd 0x778(%rdi){1to8},%zmm0,%zmm31
    4588:	07 00 00 
    458b:	62 f1 fd 48 10 86 00 	vmovupd 0x1e65400(%rsi),%zmm0
    4592:	54 e6 01 
    4595:	62 62 fd 58 bc 87 50 	vfnmadd231pd 0x550(%rdi){1to8},%zmm0,%zmm24
    459c:	05 00 00 
    459f:	62 62 fd 58 bc 8f 28 	vfnmadd231pd 0x528(%rdi){1to8},%zmm0,%zmm25
    45a6:	05 00 00 
    45a9:	62 62 fd 58 b8 97 00 	vfmadd231pd 0x800(%rdi){1to8},%zmm0,%zmm26
    45b0:	08 00 00 
    45b3:	62 62 fd 58 bc 9f f0 	vfnmadd231pd 0x7f0(%rdi){1to8},%zmm0,%zmm27
    45ba:	07 00 00 
    45bd:	62 62 fd 58 b8 a7 c8 	vfmadd231pd 0x7c8(%rdi){1to8},%zmm0,%zmm28
    45c4:	07 00 00 
    45c7:	62 62 fd 58 bc af 98 	vfnmadd231pd 0x798(%rdi){1to8},%zmm0,%zmm29
    45ce:	07 00 00 
    45d1:	62 62 fd 58 b8 b7 68 	vfmadd231pd 0x768(%rdi){1to8},%zmm0,%zmm30
    45d8:	07 00 00 
    45db:	62 62 fd 58 bc bf b8 	vfnmadd231pd 0x7b8(%rdi){1to8},%zmm0,%zmm31
    45e2:	07 00 00 
    45e5:	62 61 fd 48 2b 82 00 	vmovntpd %zmm24,0x2ee000(%rdx)
    45ec:	e0 2e 00 
    45ef:	62 61 fd 48 2b 8a 00 	vmovntpd %zmm25,0x34bc00(%rdx)
    45f6:	bc 34 00 
    45f9:	62 61 fd 48 2b 92 00 	vmovntpd %zmm26,0x3a9800(%rdx)
    4600:	98 3a 00 
    4603:	62 61 fd 48 2b 9a 00 	vmovntpd %zmm27,0x407400(%rdx)
    460a:	74 40 00 
    460d:	62 61 fd 48 2b a2 00 	vmovntpd %zmm28,0x465000(%rdx)
    4614:	50 46 00 
    4617:	62 61 fd 48 2b aa 00 	vmovntpd %zmm29,0x4c2c00(%rdx)
    461e:	2c 4c 00 
    4621:	62 61 fd 48 2b b2 00 	vmovntpd %zmm30,0x520800(%rdx)
    4628:	08 52 00 
    462b:	62 61 fd 48 2b ba 00 	vmovntpd %zmm31,0x57e400(%rdx)
    4632:	e4 57 00 
    4635:	62 01 3d 40 ef c0    	vpxord %zmm24,%zmm24,%zmm24
    463b:	62 01 35 40 ef c9    	vpxord %zmm25,%zmm25,%zmm25
    4641:	62 01 2d 40 ef d2    	vpxord %zmm26,%zmm26,%zmm26
    4647:	62 01 25 40 ef db    	vpxord %zmm27,%zmm27,%zmm27
    464d:	62 01 1d 40 ef e4    	vpxord %zmm28,%zmm28,%zmm28
    4653:	62 01 15 40 ef ed    	vpxord %zmm29,%zmm29,%zmm29
    4659:	62 01 0d 40 ef f6    	vpxord %zmm30,%zmm30,%zmm30
    465f:	62 01 05 40 ef ff    	vpxord %zmm31,%zmm31,%zmm31
    4665:	62 f1 fd 48 10 06    	vmovupd (%rsi),%zmm0
    466b:	62 62 fd 58 b8 87 08 	vfmadd231pd 0x808(%rdi){1to8},%zmm0,%zmm24
    4672:	08 00 00 
    4675:	62 62 fd 58 b8 8f 08 	vfmadd231pd 0x808(%rdi){1to8},%zmm0,%zmm25
    467c:	08 00 00 
    467f:	62 62 fd 58 b8 97 08 	vfmadd231pd 0x808(%rdi){1to8},%zmm0,%zmm26
    4686:	08 00 00 
    4689:	62 62 fd 58 b8 9f 08 	vfmadd231pd 0x808(%rdi){1to8},%zmm0,%zmm27
    4690:	08 00 00 
    4693:	62 62 fd 58 b8 a7 08 	vfmadd231pd 0x808(%rdi){1to8},%zmm0,%zmm28
    469a:	08 00 00 
    469d:	62 62 fd 58 b8 af 08 	vfmadd231pd 0x808(%rdi){1to8},%zmm0,%zmm29
    46a4:	08 00 00 
    46a7:	62 62 fd 58 bc b7 a8 	vfnmadd231pd 0xaa8(%rdi){1to8},%zmm0,%zmm30
    46ae:	0a 00 00 
    46b1:	62 62 fd 58 bc bf a8 	vfnmadd231pd 0xaa8(%rdi){1to8},%zmm0,%zmm31
    46b8:	0a 00 00 
    46bb:	62 f1 fd 48 10 86 00 	vmovupd 0x5dc00(%rsi),%zmm0
    46c2:	dc 05 00 
    46c5:	62 62 fd 58 b8 87 10 	vfmadd231pd 0x810(%rdi){1to8},%zmm0,%zmm24
    46cc:	08 00 00 
    46cf:	62 62 fd 58 b8 8f 20 	vfmadd231pd 0x820(%rdi){1to8},%zmm0,%zmm25
    46d6:	08 00 00 
    46d9:	62 62 fd 58 bc 97 18 	vfnmadd231pd 0x818(%rdi){1to8},%zmm0,%zmm26
    46e0:	08 00 00 
    46e3:	62 62 fd 58 b8 9f 10 	vfmadd231pd 0x810(%rdi){1to8},%zmm0,%zmm27
    46ea:	08 00 00 
    46ed:	62 62 fd 58 b8 a7 20 	vfmadd231pd 0x820(%rdi){1to8},%zmm0,%zmm28
    46f4:	08 00 00 
    46f7:	62 62 fd 58 bc af 18 	vfnmadd231pd 0x818(%rdi){1to8},%zmm0,%zmm29
    46fe:	08 00 00 
    4701:	62 62 fd 58 bc b7 b0 	vfnmadd231pd 0xab0(%rdi){1to8},%zmm0,%zmm30
    4708:	0a 00 00 
    470b:	62 62 fd 58 b8 bf c0 	vfmadd231pd 0xac0(%rdi){1to8},%zmm0,%zmm31
    4712:	0a 00 00 
    4715:	62 f1 fd 48 10 86 00 	vmovupd 0xbb800(%rsi),%zmm0
    471c:	b8 0b 00 
    471f:	62 62 fd 58 bc 87 18 	vfnmadd231pd 0x818(%rdi){1to8},%zmm0,%zmm24
    4726:	08 00 00 
    4729:	62 62 fd 58 bc 8f 18 	vfnmadd231pd 0x818(%rdi){1to8},%zmm0,%zmm25
    4730:	08 00 00 
    4733:	62 62 fd 58 b8 97 20 	vfmadd231pd 0x820(%rdi){1to8},%zmm0,%zmm26
    473a:	08 00 00 
    473d:	62 62 fd 58 b8 9f 20 	vfmadd231pd 0x820(%rdi){1to8},%zmm0,%zmm27
    4744:	08 00 00 
    4747:	62 62 fd 58 b8 a7 10 	vfmadd231pd 0x810(%rdi){1to8},%zmm0,%zmm28
    474e:	08 00 00 
    4751:	62 62 fd 58 b8 af 10 	vfmadd231pd 0x810(%rdi){1to8},%zmm0,%zmm29
    4758:	08 00 00 
    475b:	62 62 fd 58 bc b7 b8 	vfnmadd231pd 0xab8(%rdi){1to8},%zmm0,%zmm30
    4762:	0a 00 00 
    4765:	62 62 fd 58 bc bf b8 	vfnmadd231pd 0xab8(%rdi){1to8},%zmm0,%zmm31
    476c:	0a 00 00 
    476f:	62 f1 fd 48 10 86 00 	vmovupd 0x119400(%rsi),%zmm0
    4776:	94 11 00 
    4779:	62 62 fd 58 b8 87 20 	vfmadd231pd 0x820(%rdi){1to8},%zmm0,%zmm24
    4780:	08 00 00 
    4783:	62 62 fd 58 b8 8f 10 	vfmadd231pd 0x810(%rdi){1to8},%zmm0,%zmm25
    478a:	08 00 00 
    478d:	62 62 fd 58 b8 97 10 	vfmadd231pd 0x810(%rdi){1to8},%zmm0,%zmm26
    4794:	08 00 00 
    4797:	62 62 fd 58 bc 9f 18 	vfnmadd231pd 0x818(%rdi){1to8},%zmm0,%zmm27
    479e:	08 00 00 
    47a1:	62 62 fd 58 bc a7 18 	vfnmadd231pd 0x818(%rdi){1to8},%zmm0,%zmm28
    47a8:	08 00 00 
    47ab:	62 62 fd 58 b8 af 20 	vfmadd231pd 0x820(%rdi){1to8},%zmm0,%zmm29
    47b2:	08 00 00 
    47b5:	62 62 fd 58 b8 b7 c0 	vfmadd231pd 0xac0(%rdi){1to8},%zmm0,%zmm30
    47bc:	0a 00 00 
    47bf:	62 62 fd 58 bc bf b0 	vfnmadd231pd 0xab0(%rdi){1to8},%zmm0,%zmm31
    47c6:	0a 00 00 
    47c9:	62 f1 fd 48 10 86 00 	vmovupd 0x177000(%rsi),%zmm0
    47d0:	70 17 00 
    47d3:	62 62 fd 58 bc 87 28 	vfnmadd231pd 0x828(%rdi){1to8},%zmm0,%zmm24
    47da:	08 00 00 
    47dd:	62 62 fd 58 bc 8f 28 	vfnmadd231pd 0x828(%rdi){1to8},%zmm0,%zmm25
    47e4:	08 00 00 
    47e7:	62 62 fd 58 bc 97 28 	vfnmadd231pd 0x828(%rdi){1to8},%zmm0,%zmm26
    47ee:	08 00 00 
    47f1:	62 62 fd 58 bc 9f 28 	vfnmadd231pd 0x828(%rdi){1to8},%zmm0,%zmm27
    47f8:	08 00 00 
    47fb:	62 62 fd 58 bc a7 28 	vfnmadd231pd 0x828(%rdi){1to8},%zmm0,%zmm28
    4802:	08 00 00 
    4805:	62 62 fd 58 bc af 28 	vfnmadd231pd 0x828(%rdi){1to8},%zmm0,%zmm29
    480c:	08 00 00 
    480f:	62 62 fd 58 b8 b7 c8 	vfmadd231pd 0xac8(%rdi){1to8},%zmm0,%zmm30
    4816:	0a 00 00 
    4819:	62 62 fd 58 b8 bf c8 	vfmadd231pd 0xac8(%rdi){1to8},%zmm0,%zmm31
    4820:	0a 00 00 
    4823:	62 f1 fd 48 10 86 00 	vmovupd 0x1d4c00(%rsi),%zmm0
    482a:	4c 1d 00 
    482d:	62 62 fd 58 b8 87 30 	vfmadd231pd 0x830(%rdi){1to8},%zmm0,%zmm24
    4834:	08 00 00 
    4837:	62 62 fd 58 b8 8f 40 	vfmadd231pd 0x840(%rdi){1to8},%zmm0,%zmm25
    483e:	08 00 00 
    4841:	62 62 fd 58 b8 97 38 	vfmadd231pd 0x838(%rdi){1to8},%zmm0,%zmm26
    4848:	08 00 00 
    484b:	62 62 fd 58 b8 9f 30 	vfmadd231pd 0x830(%rdi){1to8},%zmm0,%zmm27
    4852:	08 00 00 
    4855:	62 62 fd 58 b8 a7 40 	vfmadd231pd 0x840(%rdi){1to8},%zmm0,%zmm28
    485c:	08 00 00 
    485f:	62 62 fd 58 b8 af 38 	vfmadd231pd 0x838(%rdi){1to8},%zmm0,%zmm29
    4866:	08 00 00 
    4869:	62 62 fd 58 b8 b7 d0 	vfmadd231pd 0xad0(%rdi){1to8},%zmm0,%zmm30
    4870:	0a 00 00 
    4873:	62 62 fd 58 b8 bf e0 	vfmadd231pd 0xae0(%rdi){1to8},%zmm0,%zmm31
    487a:	0a 00 00 
    487d:	62 f1 fd 48 10 86 00 	vmovupd 0x232800(%rsi),%zmm0
    4884:	28 23 00 
    4887:	62 62 fd 58 b8 87 38 	vfmadd231pd 0x838(%rdi){1to8},%zmm0,%zmm24
    488e:	08 00 00 
    4891:	62 62 fd 58 b8 8f 38 	vfmadd231pd 0x838(%rdi){1to8},%zmm0,%zmm25
    4898:	08 00 00 
    489b:	62 62 fd 58 b8 97 40 	vfmadd231pd 0x840(%rdi){1to8},%zmm0,%zmm26
    48a2:	08 00 00 
    48a5:	62 62 fd 58 b8 9f 40 	vfmadd231pd 0x840(%rdi){1to8},%zmm0,%zmm27
    48ac:	08 00 00 
    48af:	62 62 fd 58 b8 a7 30 	vfmadd231pd 0x830(%rdi){1to8},%zmm0,%zmm28
    48b6:	08 00 00 
    48b9:	62 62 fd 58 b8 af 30 	vfmadd231pd 0x830(%rdi){1to8},%zmm0,%zmm29
    48c0:	08 00 00 
    48c3:	62 62 fd 58 b8 b7 d8 	vfmadd231pd 0xad8(%rdi){1to8},%zmm0,%zmm30
    48ca:	0a 00 00 
    48cd:	62 62 fd 58 b8 bf d8 	vfmadd231pd 0xad8(%rdi){1to8},%zmm0,%zmm31
    48d4:	0a 00 00 
    48d7:	62 f1 fd 48 10 86 00 	vmovupd 0x290400(%rsi),%zmm0
    48de:	04 29 00 
    48e1:	62 62 fd 58 b8 87 40 	vfmadd231pd 0x840(%rdi){1to8},%zmm0,%zmm24
    48e8:	08 00 00 
    48eb:	62 62 fd 58 b8 8f 30 	vfmadd231pd 0x830(%rdi){1to8},%zmm0,%zmm25
    48f2:	08 00 00 
    48f5:	62 62 fd 58 b8 97 30 	vfmadd231pd 0x830(%rdi){1to8},%zmm0,%zmm26
    48fc:	08 00 00 
    48ff:	62 62 fd 58 b8 9f 38 	vfmadd231pd 0x838(%rdi){1to8},%zmm0,%zmm27
    4906:	08 00 00 
    4909:	62 62 fd 58 b8 a7 38 	vfmadd231pd 0x838(%rdi){1to8},%zmm0,%zmm28
    4910:	08 00 00 
    4913:	62 62 fd 58 b8 af 40 	vfmadd231pd 0x840(%rdi){1to8},%zmm0,%zmm29
    491a:	08 00 00 
    491d:	62 62 fd 58 b8 b7 e0 	vfmadd231pd 0xae0(%rdi){1to8},%zmm0,%zmm30
    4924:	0a 00 00 
    4927:	62 62 fd 58 b8 bf d0 	vfmadd231pd 0xad0(%rdi){1to8},%zmm0,%zmm31
    492e:	0a 00 00 
    4931:	62 f1 fd 48 10 86 00 	vmovupd 0x2ee000(%rsi),%zmm0
    4938:	e0 2e 00 
    493b:	62 62 fd 58 bc 87 48 	vfnmadd231pd 0x848(%rdi){1to8},%zmm0,%zmm24
    4942:	08 00 00 
    4945:	62 62 fd 58 bc 8f 48 	vfnmadd231pd 0x848(%rdi){1to8},%zmm0,%zmm25
    494c:	08 00 00 
    494f:	62 62 fd 58 bc 97 48 	vfnmadd231pd 0x848(%rdi){1to8},%zmm0,%zmm26
    4956:	08 00 00 
    4959:	62 62 fd 58 bc 9f 48 	vfnmadd231pd 0x848(%rdi){1to8},%zmm0,%zmm27
    4960:	08 00 00 
    4963:	62 62 fd 58 bc a7 48 	vfnmadd231pd 0x848(%rdi){1to8},%zmm0,%zmm28
    496a:	08 00 00 
    496d:	62 62 fd 58 bc af 48 	vfnmadd231pd 0x848(%rdi){1to8},%zmm0,%zmm29
    4974:	08 00 00 
    4977:	62 62 fd 58 b8 b7 e8 	vfmadd231pd 0xae8(%rdi){1to8},%zmm0,%zmm30
    497e:	0a 00 00 
    4981:	62 62 fd 58 b8 bf e8 	vfmadd231pd 0xae8(%rdi){1to8},%zmm0,%zmm31
    4988:	0a 00 00 
    498b:	62 f1 fd 48 10 86 00 	vmovupd 0x34bc00(%rsi),%zmm0
    4992:	bc 34 00 
    4995:	62 62 fd 58 bc 87 50 	vfnmadd231pd 0x850(%rdi){1to8},%zmm0,%zmm24
    499c:	08 00 00 
    499f:	62 62 fd 58 b8 8f 60 	vfmadd231pd 0x860(%rdi){1to8},%zmm0,%zmm25
    49a6:	08 00 00 
    49a9:	62 62 fd 58 bc 97 58 	vfnmadd231pd 0x858(%rdi){1to8},%zmm0,%zmm26
    49b0:	08 00 00 
    49b3:	62 62 fd 58 bc 9f 50 	vfnmadd231pd 0x850(%rdi){1to8},%zmm0,%zmm27
    49ba:	08 00 00 
    49bd:	62 62 fd 58 b8 a7 60 	vfmadd231pd 0x860(%rdi){1to8},%zmm0,%zmm28
    49c4:	08 00 00 
    49c7:	62 62 fd 58 bc af 58 	vfnmadd231pd 0x858(%rdi){1to8},%zmm0,%zmm29
    49ce:	08 00 00 
    49d1:	62 62 fd 58 bc b7 f0 	vfnmadd231pd 0xaf0(%rdi){1to8},%zmm0,%zmm30
    49d8:	0a 00 00 
    49db:	62 62 fd 58 b8 bf 00 	vfmadd231pd 0xb00(%rdi){1to8},%zmm0,%zmm31
    49e2:	0b 00 00 
    49e5:	62 f1 fd 48 10 86 00 	vmovupd 0x3a9800(%rsi),%zmm0
    49ec:	98 3a 00 
    49ef:	62 62 fd 58 bc 87 58 	vfnmadd231pd 0x858(%rdi){1to8},%zmm0,%zmm24
    49f6:	08 00 00 
    49f9:	62 62 fd 58 bc 8f 58 	vfnmadd231pd 0x858(%rdi){1to8},%zmm0,%zmm25
    4a00:	08 00 00 
    4a03:	62 62 fd 58 b8 97 60 	vfmadd231pd 0x860(%rdi){1to8},%zmm0,%zmm26
    4a0a:	08 00 00 
    4a0d:	62 62 fd 58 b8 9f 60 	vfmadd231pd 0x860(%rdi){1to8},%zmm0,%zmm27
    4a14:	08 00 00 
    4a17:	62 62 fd 58 bc a7 50 	vfnmadd231pd 0x850(%rdi){1to8},%zmm0,%zmm28
    4a1e:	08 00 00 
    4a21:	62 62 fd 58 bc af 50 	vfnmadd231pd 0x850(%rdi){1to8},%zmm0,%zmm29
    4a28:	08 00 00 
    4a2b:	62 62 fd 58 bc b7 f8 	vfnmadd231pd 0xaf8(%rdi){1to8},%zmm0,%zmm30
    4a32:	0a 00 00 
    4a35:	62 62 fd 58 bc bf f8 	vfnmadd231pd 0xaf8(%rdi){1to8},%zmm0,%zmm31
    4a3c:	0a 00 00 
    4a3f:	62 f1 fd 48 10 86 00 	vmovupd 0x407400(%rsi),%zmm0
    4a46:	74 40 00 
    4a49:	62 62 fd 58 b8 87 60 	vfmadd231pd 0x860(%rdi){1to8},%zmm0,%zmm24
    4a50:	08 00 00 
    4a53:	62 62 fd 58 bc 8f 50 	vfnmadd231pd 0x850(%rdi){1to8},%zmm0,%zmm25
    4a5a:	08 00 00 
    4a5d:	62 62 fd 58 bc 97 50 	vfnmadd231pd 0x850(%rdi){1to8},%zmm0,%zmm26
    4a64:	08 00 00 
    4a67:	62 62 fd 58 bc 9f 58 	vfnmadd231pd 0x858(%rdi){1to8},%zmm0,%zmm27
    4a6e:	08 00 00 
    4a71:	62 62 fd 58 bc a7 58 	vfnmadd231pd 0x858(%rdi){1to8},%zmm0,%zmm28
    4a78:	08 00 00 
    4a7b:	62 62 fd 58 b8 af 60 	vfmadd231pd 0x860(%rdi){1to8},%zmm0,%zmm29
    4a82:	08 00 00 
    4a85:	62 62 fd 58 b8 b7 00 	vfmadd231pd 0xb00(%rdi){1to8},%zmm0,%zmm30
    4a8c:	0b 00 00 
    4a8f:	62 62 fd 58 bc bf f0 	vfnmadd231pd 0xaf0(%rdi){1to8},%zmm0,%zmm31
    4a96:	0a 00 00 
    4a99:	62 f1 fd 48 10 86 00 	vmovupd 0x465000(%rsi),%zmm0
    4aa0:	50 46 00 
    4aa3:	62 62 fd 58 b8 87 68 	vfmadd231pd 0x868(%rdi){1to8},%zmm0,%zmm24
    4aaa:	08 00 00 
    4aad:	62 62 fd 58 b8 8f 88 	vfmadd231pd 0x888(%rdi){1to8},%zmm0,%zmm25
    4ab4:	08 00 00 
    4ab7:	62 62 fd 58 bc 97 70 	vfnmadd231pd 0x870(%rdi){1to8},%zmm0,%zmm26
    4abe:	08 00 00 
    4ac1:	62 62 fd 58 b8 9f 68 	vfmadd231pd 0x868(%rdi){1to8},%zmm0,%zmm27
    4ac8:	08 00 00 
    4acb:	62 62 fd 58 b8 a7 88 	vfmadd231pd 0x888(%rdi){1to8},%zmm0,%zmm28
    4ad2:	08 00 00 
    4ad5:	62 62 fd 58 bc af 70 	vfnmadd231pd 0x870(%rdi){1to8},%zmm0,%zmm29
    4adc:	08 00 00 
    4adf:	62 62 fd 58 bc b7 08 	vfnmadd231pd 0xb08(%rdi){1to8},%zmm0,%zmm30
    4ae6:	0b 00 00 
    4ae9:	62 62 fd 58 b8 bf 28 	vfmadd231pd 0xb28(%rdi){1to8},%zmm0,%zmm31
    4af0:	0b 00 00 
    4af3:	62 f1 fd 48 10 86 00 	vmovupd 0x4c2c00(%rsi),%zmm0
    4afa:	2c 4c 00 
    4afd:	62 62 fd 58 bc 87 70 	vfnmadd231pd 0x870(%rdi){1to8},%zmm0,%zmm24
    4b04:	08 00 00 
    4b07:	62 62 fd 58 bc 8f 70 	vfnmadd231pd 0x870(%rdi){1to8},%zmm0,%zmm25
    4b0e:	08 00 00 
    4b11:	62 62 fd 58 b8 97 88 	vfmadd231pd 0x888(%rdi){1to8},%zmm0,%zmm26
    4b18:	08 00 00 
    4b1b:	62 62 fd 58 b8 9f 88 	vfmadd231pd 0x888(%rdi){1to8},%zmm0,%zmm27
    4b22:	08 00 00 
    4b25:	62 62 fd 58 b8 a7 68 	vfmadd231pd 0x868(%rdi){1to8},%zmm0,%zmm28
    4b2c:	08 00 00 
    4b2f:	62 62 fd 58 b8 af 68 	vfmadd231pd 0x868(%rdi){1to8},%zmm0,%zmm29
    4b36:	08 00 00 
    4b39:	62 62 fd 58 bc b7 10 	vfnmadd231pd 0xb10(%rdi){1to8},%zmm0,%zmm30
    4b40:	0b 00 00 
    4b43:	62 62 fd 58 bc bf 10 	vfnmadd231pd 0xb10(%rdi){1to8},%zmm0,%zmm31
    4b4a:	0b 00 00 
    4b4d:	62 f1 fd 48 10 86 00 	vmovupd 0x520800(%rsi),%zmm0
    4b54:	08 52 00 
    4b57:	62 62 fd 58 b8 87 78 	vfmadd231pd 0x878(%rdi){1to8},%zmm0,%zmm24
    4b5e:	08 00 00 
    4b61:	62 62 fd 58 b8 8f 78 	vfmadd231pd 0x878(%rdi){1to8},%zmm0,%zmm25
    4b68:	08 00 00 
    4b6b:	62 62 fd 58 bc 97 90 	vfnmadd231pd 0x890(%rdi){1to8},%zmm0,%zmm26
    4b72:	08 00 00 
    4b75:	62 62 fd 58 bc 9f 90 	vfnmadd231pd 0x890(%rdi){1to8},%zmm0,%zmm27
    4b7c:	08 00 00 
    4b7f:	62 62 fd 58 bc a7 80 	vfnmadd231pd 0x880(%rdi){1to8},%zmm0,%zmm28
    4b86:	08 00 00 
    4b89:	62 62 fd 58 bc af 80 	vfnmadd231pd 0x880(%rdi){1to8},%zmm0,%zmm29
    4b90:	08 00 00 
    4b93:	62 62 fd 58 b8 b7 18 	vfmadd231pd 0xb18(%rdi){1to8},%zmm0,%zmm30
    4b9a:	0b 00 00 
    4b9d:	62 62 fd 58 b8 bf 18 	vfmadd231pd 0xb18(%rdi){1to8},%zmm0,%zmm31
    4ba4:	0b 00 00 
    4ba7:	62 f1 fd 48 10 86 00 	vmovupd 0x57e400(%rsi),%zmm0
    4bae:	e4 57 00 
    4bb1:	62 62 fd 58 bc 87 80 	vfnmadd231pd 0x880(%rdi){1to8},%zmm0,%zmm24
    4bb8:	08 00 00 
    4bbb:	62 62 fd 58 bc 8f 90 	vfnmadd231pd 0x890(%rdi){1to8},%zmm0,%zmm25
    4bc2:	08 00 00 
    4bc5:	62 62 fd 58 b8 97 78 	vfmadd231pd 0x878(%rdi){1to8},%zmm0,%zmm26
    4bcc:	08 00 00 
    4bcf:	62 62 fd 58 bc 9f 80 	vfnmadd231pd 0x880(%rdi){1to8},%zmm0,%zmm27
    4bd6:	08 00 00 
    4bd9:	62 62 fd 58 bc a7 90 	vfnmadd231pd 0x890(%rdi){1to8},%zmm0,%zmm28
    4be0:	08 00 00 
    4be3:	62 62 fd 58 b8 af 78 	vfmadd231pd 0x878(%rdi){1to8},%zmm0,%zmm29
    4bea:	08 00 00 
    4bed:	62 62 fd 58 b8 b7 20 	vfmadd231pd 0xb20(%rdi){1to8},%zmm0,%zmm30
    4bf4:	0b 00 00 
    4bf7:	62 62 fd 58 bc bf 30 	vfnmadd231pd 0xb30(%rdi){1to8},%zmm0,%zmm31
    4bfe:	0b 00 00 
    4c01:	62 f1 fd 48 10 86 00 	vmovupd 0x5dc000(%rsi),%zmm0
    4c08:	c0 5d 00 
    4c0b:	62 62 fd 58 b8 87 88 	vfmadd231pd 0x888(%rdi){1to8},%zmm0,%zmm24
    4c12:	08 00 00 
    4c15:	62 62 fd 58 b8 8f 68 	vfmadd231pd 0x868(%rdi){1to8},%zmm0,%zmm25
    4c1c:	08 00 00 
    4c1f:	62 62 fd 58 b8 97 68 	vfmadd231pd 0x868(%rdi){1to8},%zmm0,%zmm26
    4c26:	08 00 00 
    4c29:	62 62 fd 58 bc 9f 70 	vfnmadd231pd 0x870(%rdi){1to8},%zmm0,%zmm27
    4c30:	08 00 00 
    4c33:	62 62 fd 58 bc a7 70 	vfnmadd231pd 0x870(%rdi){1to8},%zmm0,%zmm28
    4c3a:	08 00 00 
    4c3d:	62 62 fd 58 b8 af 88 	vfmadd231pd 0x888(%rdi){1to8},%zmm0,%zmm29
    4c44:	08 00 00 
    4c47:	62 62 fd 58 b8 b7 28 	vfmadd231pd 0xb28(%rdi){1to8},%zmm0,%zmm30
    4c4e:	0b 00 00 
    4c51:	62 62 fd 58 bc bf 08 	vfnmadd231pd 0xb08(%rdi){1to8},%zmm0,%zmm31
    4c58:	0b 00 00 
    4c5b:	62 f1 fd 48 10 86 00 	vmovupd 0x639c00(%rsi),%zmm0
    4c62:	9c 63 00 
    4c65:	62 62 fd 58 bc 87 90 	vfnmadd231pd 0x890(%rdi){1to8},%zmm0,%zmm24
    4c6c:	08 00 00 
    4c6f:	62 62 fd 58 bc 8f 80 	vfnmadd231pd 0x880(%rdi){1to8},%zmm0,%zmm25
    4c76:	08 00 00 
    4c79:	62 62 fd 58 bc 97 80 	vfnmadd231pd 0x880(%rdi){1to8},%zmm0,%zmm26
    4c80:	08 00 00 
    4c83:	62 62 fd 58 b8 9f 78 	vfmadd231pd 0x878(%rdi){1to8},%zmm0,%zmm27
    4c8a:	08 00 00 
    4c8d:	62 62 fd 58 b8 a7 78 	vfmadd231pd 0x878(%rdi){1to8},%zmm0,%zmm28
    4c94:	08 00 00 
    4c97:	62 62 fd 58 bc af 90 	vfnmadd231pd 0x890(%rdi){1to8},%zmm0,%zmm29
    4c9e:	08 00 00 
    4ca1:	62 62 fd 58 bc b7 30 	vfnmadd231pd 0xb30(%rdi){1to8},%zmm0,%zmm30
    4ca8:	0b 00 00 
    4cab:	62 62 fd 58 b8 bf 20 	vfmadd231pd 0xb20(%rdi){1to8},%zmm0,%zmm31
    4cb2:	0b 00 00 
    4cb5:	62 f1 fd 48 10 86 00 	vmovupd 0x697800(%rsi),%zmm0
    4cbc:	78 69 00 
    4cbf:	62 62 fd 58 bc 87 98 	vfnmadd231pd 0x898(%rdi){1to8},%zmm0,%zmm24
    4cc6:	08 00 00 
    4cc9:	62 62 fd 58 bc 8f b8 	vfnmadd231pd 0x8b8(%rdi){1to8},%zmm0,%zmm25
    4cd0:	08 00 00 
    4cd3:	62 62 fd 58 bc 97 a0 	vfnmadd231pd 0x8a0(%rdi){1to8},%zmm0,%zmm26
    4cda:	08 00 00 
    4cdd:	62 62 fd 58 bc 9f 98 	vfnmadd231pd 0x898(%rdi){1to8},%zmm0,%zmm27
    4ce4:	08 00 00 
    4ce7:	62 62 fd 58 bc a7 b8 	vfnmadd231pd 0x8b8(%rdi){1to8},%zmm0,%zmm28
    4cee:	08 00 00 
    4cf1:	62 62 fd 58 bc af a0 	vfnmadd231pd 0x8a0(%rdi){1to8},%zmm0,%zmm29
    4cf8:	08 00 00 
    4cfb:	62 62 fd 58 bc b7 38 	vfnmadd231pd 0xb38(%rdi){1to8},%zmm0,%zmm30
    4d02:	0b 00 00 
    4d05:	62 62 fd 58 bc bf 58 	vfnmadd231pd 0xb58(%rdi){1to8},%zmm0,%zmm31
    4d0c:	0b 00 00 
    4d0f:	62 f1 fd 48 10 86 00 	vmovupd 0x6f5400(%rsi),%zmm0
    4d16:	54 6f 00 
    4d19:	62 62 fd 58 bc 87 a0 	vfnmadd231pd 0x8a0(%rdi){1to8},%zmm0,%zmm24
    4d20:	08 00 00 
    4d23:	62 62 fd 58 bc 8f a0 	vfnmadd231pd 0x8a0(%rdi){1to8},%zmm0,%zmm25
    4d2a:	08 00 00 
    4d2d:	62 62 fd 58 bc 97 b8 	vfnmadd231pd 0x8b8(%rdi){1to8},%zmm0,%zmm26
    4d34:	08 00 00 
    4d37:	62 62 fd 58 bc 9f b8 	vfnmadd231pd 0x8b8(%rdi){1to8},%zmm0,%zmm27
    4d3e:	08 00 00 
    4d41:	62 62 fd 58 bc a7 98 	vfnmadd231pd 0x898(%rdi){1to8},%zmm0,%zmm28
    4d48:	08 00 00 
    4d4b:	62 62 fd 58 bc af 98 	vfnmadd231pd 0x898(%rdi){1to8},%zmm0,%zmm29
    4d52:	08 00 00 
    4d55:	62 62 fd 58 bc b7 40 	vfnmadd231pd 0xb40(%rdi){1to8},%zmm0,%zmm30
    4d5c:	0b 00 00 
    4d5f:	62 62 fd 58 bc bf 40 	vfnmadd231pd 0xb40(%rdi){1to8},%zmm0,%zmm31
    4d66:	0b 00 00 
    4d69:	62 f1 fd 48 10 86 00 	vmovupd 0x753000(%rsi),%zmm0
    4d70:	30 75 00 
    4d73:	62 62 fd 58 bc 87 a8 	vfnmadd231pd 0x8a8(%rdi){1to8},%zmm0,%zmm24
    4d7a:	08 00 00 
    4d7d:	62 62 fd 58 bc 8f a8 	vfnmadd231pd 0x8a8(%rdi){1to8},%zmm0,%zmm25
    4d84:	08 00 00 
    4d87:	62 62 fd 58 b8 97 c0 	vfmadd231pd 0x8c0(%rdi){1to8},%zmm0,%zmm26
    4d8e:	08 00 00 
    4d91:	62 62 fd 58 b8 9f c0 	vfmadd231pd 0x8c0(%rdi){1to8},%zmm0,%zmm27
    4d98:	08 00 00 
    4d9b:	62 62 fd 58 bc a7 b0 	vfnmadd231pd 0x8b0(%rdi){1to8},%zmm0,%zmm28
    4da2:	08 00 00 
    4da5:	62 62 fd 58 bc af b0 	vfnmadd231pd 0x8b0(%rdi){1to8},%zmm0,%zmm29
    4dac:	08 00 00 
    4daf:	62 62 fd 58 bc b7 48 	vfnmadd231pd 0xb48(%rdi){1to8},%zmm0,%zmm30
    4db6:	0b 00 00 
    4db9:	62 62 fd 58 bc bf 48 	vfnmadd231pd 0xb48(%rdi){1to8},%zmm0,%zmm31
    4dc0:	0b 00 00 
    4dc3:	62 f1 fd 48 10 86 00 	vmovupd 0x7b0c00(%rsi),%zmm0
    4dca:	0c 7b 00 
    4dcd:	62 62 fd 58 bc 87 b0 	vfnmadd231pd 0x8b0(%rdi){1to8},%zmm0,%zmm24
    4dd4:	08 00 00 
    4dd7:	62 62 fd 58 b8 8f c0 	vfmadd231pd 0x8c0(%rdi){1to8},%zmm0,%zmm25
    4dde:	08 00 00 
    4de1:	62 62 fd 58 bc 97 a8 	vfnmadd231pd 0x8a8(%rdi){1to8},%zmm0,%zmm26
    4de8:	08 00 00 
    4deb:	62 62 fd 58 bc 9f b0 	vfnmadd231pd 0x8b0(%rdi){1to8},%zmm0,%zmm27
    4df2:	08 00 00 
    4df5:	62 62 fd 58 b8 a7 c0 	vfmadd231pd 0x8c0(%rdi){1to8},%zmm0,%zmm28
    4dfc:	08 00 00 
    4dff:	62 62 fd 58 bc af a8 	vfnmadd231pd 0x8a8(%rdi){1to8},%zmm0,%zmm29
    4e06:	08 00 00 
    4e09:	62 62 fd 58 bc b7 50 	vfnmadd231pd 0xb50(%rdi){1to8},%zmm0,%zmm30
    4e10:	0b 00 00 
    4e13:	62 62 fd 58 bc bf 60 	vfnmadd231pd 0xb60(%rdi){1to8},%zmm0,%zmm31
    4e1a:	0b 00 00 
    4e1d:	62 f1 fd 48 10 86 00 	vmovupd 0x80e800(%rsi),%zmm0
    4e24:	e8 80 00 
    4e27:	62 62 fd 58 bc 87 b8 	vfnmadd231pd 0x8b8(%rdi){1to8},%zmm0,%zmm24
    4e2e:	08 00 00 
    4e31:	62 62 fd 58 bc 8f 98 	vfnmadd231pd 0x898(%rdi){1to8},%zmm0,%zmm25
    4e38:	08 00 00 
    4e3b:	62 62 fd 58 bc 97 98 	vfnmadd231pd 0x898(%rdi){1to8},%zmm0,%zmm26
    4e42:	08 00 00 
    4e45:	62 62 fd 58 bc 9f a0 	vfnmadd231pd 0x8a0(%rdi){1to8},%zmm0,%zmm27
    4e4c:	08 00 00 
    4e4f:	62 62 fd 58 bc a7 a0 	vfnmadd231pd 0x8a0(%rdi){1to8},%zmm0,%zmm28
    4e56:	08 00 00 
    4e59:	62 62 fd 58 bc af b8 	vfnmadd231pd 0x8b8(%rdi){1to8},%zmm0,%zmm29
    4e60:	08 00 00 
    4e63:	62 62 fd 58 bc b7 58 	vfnmadd231pd 0xb58(%rdi){1to8},%zmm0,%zmm30
    4e6a:	0b 00 00 
    4e6d:	62 62 fd 58 bc bf 38 	vfnmadd231pd 0xb38(%rdi){1to8},%zmm0,%zmm31
    4e74:	0b 00 00 
    4e77:	62 f1 fd 48 10 86 00 	vmovupd 0x86c400(%rsi),%zmm0
    4e7e:	c4 86 00 
    4e81:	62 62 fd 58 b8 87 c0 	vfmadd231pd 0x8c0(%rdi){1to8},%zmm0,%zmm24
    4e88:	08 00 00 
    4e8b:	62 62 fd 58 bc 8f b0 	vfnmadd231pd 0x8b0(%rdi){1to8},%zmm0,%zmm25
    4e92:	08 00 00 
    4e95:	62 62 fd 58 bc 97 b0 	vfnmadd231pd 0x8b0(%rdi){1to8},%zmm0,%zmm26
    4e9c:	08 00 00 
    4e9f:	62 62 fd 58 bc 9f a8 	vfnmadd231pd 0x8a8(%rdi){1to8},%zmm0,%zmm27
    4ea6:	08 00 00 
    4ea9:	62 62 fd 58 bc a7 a8 	vfnmadd231pd 0x8a8(%rdi){1to8},%zmm0,%zmm28
    4eb0:	08 00 00 
    4eb3:	62 62 fd 58 b8 af c0 	vfmadd231pd 0x8c0(%rdi){1to8},%zmm0,%zmm29
    4eba:	08 00 00 
    4ebd:	62 62 fd 58 bc b7 60 	vfnmadd231pd 0xb60(%rdi){1to8},%zmm0,%zmm30
    4ec4:	0b 00 00 
    4ec7:	62 62 fd 58 bc bf 50 	vfnmadd231pd 0xb50(%rdi){1to8},%zmm0,%zmm31
    4ece:	0b 00 00 
    4ed1:	62 f1 fd 48 10 86 00 	vmovupd 0x8ca000(%rsi),%zmm0
    4ed8:	a0 8c 00 
    4edb:	62 62 fd 58 b8 87 c8 	vfmadd231pd 0x8c8(%rdi){1to8},%zmm0,%zmm24
    4ee2:	08 00 00 
    4ee5:	62 62 fd 58 bc 8f 08 	vfnmadd231pd 0x908(%rdi){1to8},%zmm0,%zmm25
    4eec:	09 00 00 
    4eef:	62 62 fd 58 bc 97 10 	vfnmadd231pd 0x910(%rdi){1to8},%zmm0,%zmm26
    4ef6:	09 00 00 
    4ef9:	62 62 fd 58 b8 9f c8 	vfmadd231pd 0x8c8(%rdi){1to8},%zmm0,%zmm27
    4f00:	08 00 00 
    4f03:	62 62 fd 58 bc a7 08 	vfnmadd231pd 0x908(%rdi){1to8},%zmm0,%zmm28
    4f0a:	09 00 00 
    4f0d:	62 62 fd 58 bc af 10 	vfnmadd231pd 0x910(%rdi){1to8},%zmm0,%zmm29
    4f14:	09 00 00 
    4f17:	62 62 fd 58 bc b7 68 	vfnmadd231pd 0xb68(%rdi){1to8},%zmm0,%zmm30
    4f1e:	0b 00 00 
    4f21:	62 62 fd 58 b8 bf a8 	vfmadd231pd 0xba8(%rdi){1to8},%zmm0,%zmm31
    4f28:	0b 00 00 
    4f2b:	62 f1 fd 48 10 86 00 	vmovupd 0x927c00(%rsi),%zmm0
    4f32:	7c 92 00 
    4f35:	62 62 fd 58 bc 87 d0 	vfnmadd231pd 0x8d0(%rdi){1to8},%zmm0,%zmm24
    4f3c:	08 00 00 
    4f3f:	62 62 fd 58 b8 8f 18 	vfmadd231pd 0x918(%rdi){1to8},%zmm0,%zmm25
    4f46:	09 00 00 
    4f49:	62 62 fd 58 bc 97 e0 	vfnmadd231pd 0x8e0(%rdi){1to8},%zmm0,%zmm26
    4f50:	08 00 00 
    4f53:	62 62 fd 58 b8 9f 20 	vfmadd231pd 0x920(%rdi){1to8},%zmm0,%zmm27
    4f5a:	09 00 00 
    4f5d:	62 62 fd 58 b8 a7 00 	vfmadd231pd 0x900(%rdi){1to8},%zmm0,%zmm28
    4f64:	09 00 00 
    4f67:	62 62 fd 58 bc af f0 	vfnmadd231pd 0x8f0(%rdi){1to8},%zmm0,%zmm29
    4f6e:	08 00 00 
    4f71:	62 62 fd 58 bc b7 70 	vfnmadd231pd 0xb70(%rdi){1to8},%zmm0,%zmm30
    4f78:	0b 00 00 
    4f7b:	62 62 fd 58 b8 bf b8 	vfmadd231pd 0xbb8(%rdi){1to8},%zmm0,%zmm31
    4f82:	0b 00 00 
    4f85:	62 f1 fd 48 10 86 00 	vmovupd 0x985800(%rsi),%zmm0
    4f8c:	58 98 00 
    4f8f:	62 62 fd 58 b8 87 d8 	vfmadd231pd 0x8d8(%rdi){1to8},%zmm0,%zmm24
    4f96:	08 00 00 
    4f99:	62 62 fd 58 bc 8f f8 	vfnmadd231pd 0x8f8(%rdi){1to8},%zmm0,%zmm25
    4fa0:	08 00 00 
    4fa3:	62 62 fd 58 bc 97 f8 	vfnmadd231pd 0x8f8(%rdi){1to8},%zmm0,%zmm26
    4faa:	08 00 00 
    4fad:	62 62 fd 58 b8 9f e8 	vfmadd231pd 0x8e8(%rdi){1to8},%zmm0,%zmm27
    4fb4:	08 00 00 
    4fb7:	62 62 fd 58 b8 a7 e8 	vfmadd231pd 0x8e8(%rdi){1to8},%zmm0,%zmm28
    4fbe:	08 00 00 
    4fc1:	62 62 fd 58 b8 af d8 	vfmadd231pd 0x8d8(%rdi){1to8},%zmm0,%zmm29
    4fc8:	08 00 00 
    4fcb:	62 62 fd 58 b8 b7 78 	vfmadd231pd 0xb78(%rdi){1to8},%zmm0,%zmm30
    4fd2:	0b 00 00 
    4fd5:	62 62 fd 58 bc bf 98 	vfnmadd231pd 0xb98(%rdi){1to8},%zmm0,%zmm31
    4fdc:	0b 00 00 
    4fdf:	62 f1 fd 48 10 86 00 	vmovupd 0x9e3400(%rsi),%zmm0
    4fe6:	34 9e 00 
    4fe9:	62 62 fd 58 bc 87 e0 	vfnmadd231pd 0x8e0(%rdi){1to8},%zmm0,%zmm24
    4ff0:	08 00 00 
    4ff3:	62 62 fd 58 bc 8f f0 	vfnmadd231pd 0x8f0(%rdi){1to8},%zmm0,%zmm25
    4ffa:	08 00 00 
    4ffd:	62 62 fd 58 b8 97 00 	vfmadd231pd 0x900(%rdi){1to8},%zmm0,%zmm26
    5004:	09 00 00 
    5007:	62 62 fd 58 b8 9f 18 	vfmadd231pd 0x918(%rdi){1to8},%zmm0,%zmm27
    500e:	09 00 00 
    5011:	62 62 fd 58 bc a7 d0 	vfnmadd231pd 0x8d0(%rdi){1to8},%zmm0,%zmm28
    5018:	08 00 00 
    501b:	62 62 fd 58 b8 af 20 	vfmadd231pd 0x920(%rdi){1to8},%zmm0,%zmm29
    5022:	09 00 00 
    5025:	62 62 fd 58 bc b7 80 	vfnmadd231pd 0xb80(%rdi){1to8},%zmm0,%zmm30
    502c:	0b 00 00 
    502f:	62 62 fd 58 b8 bf 90 	vfmadd231pd 0xb90(%rdi){1to8},%zmm0,%zmm31
    5036:	0b 00 00 
    5039:	62 f1 fd 48 10 86 00 	vmovupd 0xa41000(%rsi),%zmm0
    5040:	10 a4 00 
    5043:	62 62 fd 58 b8 87 e8 	vfmadd231pd 0x8e8(%rdi){1to8},%zmm0,%zmm24
    504a:	08 00 00 
    504d:	62 62 fd 58 b8 8f e8 	vfmadd231pd 0x8e8(%rdi){1to8},%zmm0,%zmm25
    5054:	08 00 00 
    5057:	62 62 fd 58 b8 97 d8 	vfmadd231pd 0x8d8(%rdi){1to8},%zmm0,%zmm26
    505e:	08 00 00 
    5061:	62 62 fd 58 b8 9f d8 	vfmadd231pd 0x8d8(%rdi){1to8},%zmm0,%zmm27
    5068:	08 00 00 
    506b:	62 62 fd 58 bc a7 f8 	vfnmadd231pd 0x8f8(%rdi){1to8},%zmm0,%zmm28
    5072:	08 00 00 
    5075:	62 62 fd 58 bc af f8 	vfnmadd231pd 0x8f8(%rdi){1to8},%zmm0,%zmm29
    507c:	08 00 00 
    507f:	62 62 fd 58 bc b7 88 	vfnmadd231pd 0xb88(%rdi){1to8},%zmm0,%zmm30
    5086:	0b 00 00 
    5089:	62 62 fd 58 bc bf 88 	vfnmadd231pd 0xb88(%rdi){1to8},%zmm0,%zmm31
    5090:	0b 00 00 
    5093:	62 f1 fd 48 10 86 00 	vmovupd 0xa9ec00(%rsi),%zmm0
    509a:	ec a9 00 
    509d:	62 62 fd 58 bc 87 f0 	vfnmadd231pd 0x8f0(%rdi){1to8},%zmm0,%zmm24
    50a4:	08 00 00 
    50a7:	62 62 fd 58 bc 8f e0 	vfnmadd231pd 0x8e0(%rdi){1to8},%zmm0,%zmm25
    50ae:	08 00 00 
    50b1:	62 62 fd 58 b8 97 18 	vfmadd231pd 0x918(%rdi){1to8},%zmm0,%zmm26
    50b8:	09 00 00 
    50bb:	62 62 fd 58 b8 9f 00 	vfmadd231pd 0x900(%rdi){1to8},%zmm0,%zmm27
    50c2:	09 00 00 
    50c5:	62 62 fd 58 b8 a7 20 	vfmadd231pd 0x920(%rdi){1to8},%zmm0,%zmm28
    50cc:	09 00 00 
    50cf:	62 62 fd 58 bc af d0 	vfnmadd231pd 0x8d0(%rdi){1to8},%zmm0,%zmm29
    50d6:	08 00 00 
    50d9:	62 62 fd 58 b8 b7 90 	vfmadd231pd 0xb90(%rdi){1to8},%zmm0,%zmm30
    50e0:	0b 00 00 
    50e3:	62 62 fd 58 bc bf 80 	vfnmadd231pd 0xb80(%rdi){1to8},%zmm0,%zmm31
    50ea:	0b 00 00 
    50ed:	62 f1 fd 48 10 86 00 	vmovupd 0xafc800(%rsi),%zmm0
    50f4:	c8 af 00 
    50f7:	62 62 fd 58 bc 87 f8 	vfnmadd231pd 0x8f8(%rdi){1to8},%zmm0,%zmm24
    50fe:	08 00 00 
    5101:	62 62 fd 58 b8 8f d8 	vfmadd231pd 0x8d8(%rdi){1to8},%zmm0,%zmm25
    5108:	08 00 00 
    510b:	62 62 fd 58 b8 97 e8 	vfmadd231pd 0x8e8(%rdi){1to8},%zmm0,%zmm26
    5112:	08 00 00 
    5115:	62 62 fd 58 bc 9f f8 	vfnmadd231pd 0x8f8(%rdi){1to8},%zmm0,%zmm27
    511c:	08 00 00 
    511f:	62 62 fd 58 b8 a7 d8 	vfmadd231pd 0x8d8(%rdi){1to8},%zmm0,%zmm28
    5126:	08 00 00 
    5129:	62 62 fd 58 b8 af e8 	vfmadd231pd 0x8e8(%rdi){1to8},%zmm0,%zmm29
    5130:	08 00 00 
    5133:	62 62 fd 58 bc b7 98 	vfnmadd231pd 0xb98(%rdi){1to8},%zmm0,%zmm30
    513a:	0b 00 00 
    513d:	62 62 fd 58 b8 bf 78 	vfmadd231pd 0xb78(%rdi){1to8},%zmm0,%zmm31
    5144:	0b 00 00 
    5147:	62 f1 fd 48 10 86 00 	vmovupd 0xb5a400(%rsi),%zmm0
    514e:	a4 b5 00 
    5151:	62 62 fd 58 b8 87 00 	vfmadd231pd 0x900(%rdi){1to8},%zmm0,%zmm24
    5158:	09 00 00 
    515b:	62 62 fd 58 b8 8f 20 	vfmadd231pd 0x920(%rdi){1to8},%zmm0,%zmm25
    5162:	09 00 00 
    5165:	62 62 fd 58 bc 97 d0 	vfnmadd231pd 0x8d0(%rdi){1to8},%zmm0,%zmm26
    516c:	08 00 00 
    516f:	62 62 fd 58 bc 9f f0 	vfnmadd231pd 0x8f0(%rdi){1to8},%zmm0,%zmm27
    5176:	08 00 00 
    5179:	62 62 fd 58 bc a7 e0 	vfnmadd231pd 0x8e0(%rdi){1to8},%zmm0,%zmm28
    5180:	08 00 00 
    5183:	62 62 fd 58 b8 af 18 	vfmadd231pd 0x918(%rdi){1to8},%zmm0,%zmm29
    518a:	09 00 00 
    518d:	62 62 fd 58 b8 b7 a0 	vfmadd231pd 0xba0(%rdi){1to8},%zmm0,%zmm30
    5194:	0b 00 00 
    5197:	62 62 fd 58 bc bf c0 	vfnmadd231pd 0xbc0(%rdi){1to8},%zmm0,%zmm31
    519e:	0b 00 00 
    51a1:	62 f1 fd 48 10 86 00 	vmovupd 0xbb8000(%rsi),%zmm0
    51a8:	80 bb 00 
    51ab:	62 62 fd 58 bc 87 08 	vfnmadd231pd 0x908(%rdi){1to8},%zmm0,%zmm24
    51b2:	09 00 00 
    51b5:	62 62 fd 58 b8 8f c8 	vfmadd231pd 0x8c8(%rdi){1to8},%zmm0,%zmm25
    51bc:	08 00 00 
    51bf:	62 62 fd 58 b8 97 c8 	vfmadd231pd 0x8c8(%rdi){1to8},%zmm0,%zmm26
    51c6:	08 00 00 
    51c9:	62 62 fd 58 bc 9f 10 	vfnmadd231pd 0x910(%rdi){1to8},%zmm0,%zmm27
    51d0:	09 00 00 
    51d3:	62 62 fd 58 bc a7 10 	vfnmadd231pd 0x910(%rdi){1to8},%zmm0,%zmm28
    51da:	09 00 00 
    51dd:	62 62 fd 58 bc af 08 	vfnmadd231pd 0x908(%rdi){1to8},%zmm0,%zmm29
    51e4:	09 00 00 
    51e7:	62 62 fd 58 b8 b7 a8 	vfmadd231pd 0xba8(%rdi){1to8},%zmm0,%zmm30
    51ee:	0b 00 00 
    51f1:	62 62 fd 58 bc bf 68 	vfnmadd231pd 0xb68(%rdi){1to8},%zmm0,%zmm31
    51f8:	0b 00 00 
    51fb:	62 f1 fd 48 10 86 00 	vmovupd 0xc15c00(%rsi),%zmm0
    5202:	5c c1 00 
    5205:	62 62 fd 58 bc 87 10 	vfnmadd231pd 0x910(%rdi){1to8},%zmm0,%zmm24
    520c:	09 00 00 
    520f:	62 62 fd 58 bc 8f 10 	vfnmadd231pd 0x910(%rdi){1to8},%zmm0,%zmm25
    5216:	09 00 00 
    5219:	62 62 fd 58 bc 97 08 	vfnmadd231pd 0x908(%rdi){1to8},%zmm0,%zmm26
    5220:	09 00 00 
    5223:	62 62 fd 58 bc 9f 08 	vfnmadd231pd 0x908(%rdi){1to8},%zmm0,%zmm27
    522a:	09 00 00 
    522d:	62 62 fd 58 b8 a7 c8 	vfmadd231pd 0x8c8(%rdi){1to8},%zmm0,%zmm28
    5234:	08 00 00 
    5237:	62 62 fd 58 b8 af c8 	vfmadd231pd 0x8c8(%rdi){1to8},%zmm0,%zmm29
    523e:	08 00 00 
    5241:	62 62 fd 58 bc b7 b0 	vfnmadd231pd 0xbb0(%rdi){1to8},%zmm0,%zmm30
    5248:	0b 00 00 
    524b:	62 62 fd 58 bc bf b0 	vfnmadd231pd 0xbb0(%rdi){1to8},%zmm0,%zmm31
    5252:	0b 00 00 
    5255:	62 f1 fd 48 10 86 00 	vmovupd 0xc73800(%rsi),%zmm0
    525c:	38 c7 00 
    525f:	62 62 fd 58 b8 87 18 	vfmadd231pd 0x918(%rdi){1to8},%zmm0,%zmm24
    5266:	09 00 00 
    5269:	62 62 fd 58 bc 8f d0 	vfnmadd231pd 0x8d0(%rdi){1to8},%zmm0,%zmm25
    5270:	08 00 00 
    5273:	62 62 fd 58 b8 97 20 	vfmadd231pd 0x920(%rdi){1to8},%zmm0,%zmm26
    527a:	09 00 00 
    527d:	62 62 fd 58 bc 9f e0 	vfnmadd231pd 0x8e0(%rdi){1to8},%zmm0,%zmm27
    5284:	08 00 00 
    5287:	62 62 fd 58 bc a7 f0 	vfnmadd231pd 0x8f0(%rdi){1to8},%zmm0,%zmm28
    528e:	08 00 00 
    5291:	62 62 fd 58 b8 af 00 	vfmadd231pd 0x900(%rdi){1to8},%zmm0,%zmm29
    5298:	09 00 00 
    529b:	62 62 fd 58 b8 b7 b8 	vfmadd231pd 0xbb8(%rdi){1to8},%zmm0,%zmm30
    52a2:	0b 00 00 
    52a5:	62 62 fd 58 bc bf 70 	vfnmadd231pd 0xb70(%rdi){1to8},%zmm0,%zmm31
    52ac:	0b 00 00 
    52af:	62 f1 fd 48 10 86 00 	vmovupd 0xcd1400(%rsi),%zmm0
    52b6:	14 cd 00 
    52b9:	62 62 fd 58 b8 87 20 	vfmadd231pd 0x920(%rdi){1to8},%zmm0,%zmm24
    52c0:	09 00 00 
    52c3:	62 62 fd 58 b8 8f 00 	vfmadd231pd 0x900(%rdi){1to8},%zmm0,%zmm25
    52ca:	09 00 00 
    52cd:	62 62 fd 58 bc 97 f0 	vfnmadd231pd 0x8f0(%rdi){1to8},%zmm0,%zmm26
    52d4:	08 00 00 
    52d7:	62 62 fd 58 bc 9f d0 	vfnmadd231pd 0x8d0(%rdi){1to8},%zmm0,%zmm27
    52de:	08 00 00 
    52e1:	62 62 fd 58 b8 a7 18 	vfmadd231pd 0x918(%rdi){1to8},%zmm0,%zmm28
    52e8:	09 00 00 
    52eb:	62 62 fd 58 bc af e0 	vfnmadd231pd 0x8e0(%rdi){1to8},%zmm0,%zmm29
    52f2:	08 00 00 
    52f5:	62 62 fd 58 bc b7 c0 	vfnmadd231pd 0xbc0(%rdi){1to8},%zmm0,%zmm30
    52fc:	0b 00 00 
    52ff:	62 62 fd 58 b8 bf a0 	vfmadd231pd 0xba0(%rdi){1to8},%zmm0,%zmm31
    5306:	0b 00 00 
    5309:	62 f1 fd 48 10 86 00 	vmovupd 0xd2f000(%rsi),%zmm0
    5310:	f0 d2 00 
    5313:	62 62 fd 58 b8 87 28 	vfmadd231pd 0x928(%rdi){1to8},%zmm0,%zmm24
    531a:	09 00 00 
    531d:	62 62 fd 58 bc 8f 68 	vfnmadd231pd 0x968(%rdi){1to8},%zmm0,%zmm25
    5324:	09 00 00 
    5327:	62 62 fd 58 bc 97 70 	vfnmadd231pd 0x970(%rdi){1to8},%zmm0,%zmm26
    532e:	09 00 00 
    5331:	62 62 fd 58 b8 9f 28 	vfmadd231pd 0x928(%rdi){1to8},%zmm0,%zmm27
    5338:	09 00 00 
    533b:	62 62 fd 58 bc a7 68 	vfnmadd231pd 0x968(%rdi){1to8},%zmm0,%zmm28
    5342:	09 00 00 
    5345:	62 62 fd 58 bc af 70 	vfnmadd231pd 0x970(%rdi){1to8},%zmm0,%zmm29
    534c:	09 00 00 
    534f:	62 62 fd 58 b8 b7 c8 	vfmadd231pd 0xbc8(%rdi){1to8},%zmm0,%zmm30
    5356:	0b 00 00 
    5359:	62 62 fd 58 bc bf 08 	vfnmadd231pd 0xc08(%rdi){1to8},%zmm0,%zmm31
    5360:	0c 00 00 
    5363:	62 f1 fd 48 10 86 00 	vmovupd 0xd8cc00(%rsi),%zmm0
    536a:	cc d8 00 
    536d:	62 62 fd 58 bc 87 30 	vfnmadd231pd 0x930(%rdi){1to8},%zmm0,%zmm24
    5374:	09 00 00 
    5377:	62 62 fd 58 b8 8f 78 	vfmadd231pd 0x978(%rdi){1to8},%zmm0,%zmm25
    537e:	09 00 00 
    5381:	62 62 fd 58 b8 97 40 	vfmadd231pd 0x940(%rdi){1to8},%zmm0,%zmm26
    5388:	09 00 00 
    538b:	62 62 fd 58 bc 9f 80 	vfnmadd231pd 0x980(%rdi){1to8},%zmm0,%zmm27
    5392:	09 00 00 
    5395:	62 62 fd 58 b8 a7 60 	vfmadd231pd 0x960(%rdi){1to8},%zmm0,%zmm28
    539c:	09 00 00 
    539f:	62 62 fd 58 bc af 50 	vfnmadd231pd 0x950(%rdi){1to8},%zmm0,%zmm29
    53a6:	09 00 00 
    53a9:	62 62 fd 58 bc b7 d0 	vfnmadd231pd 0xbd0(%rdi){1to8},%zmm0,%zmm30
    53b0:	0b 00 00 
    53b3:	62 62 fd 58 b8 bf 18 	vfmadd231pd 0xc18(%rdi){1to8},%zmm0,%zmm31
    53ba:	0c 00 00 
    53bd:	62 f1 fd 48 10 86 00 	vmovupd 0xdea800(%rsi),%zmm0
    53c4:	a8 de 00 
    53c7:	62 62 fd 58 b8 87 38 	vfmadd231pd 0x938(%rdi){1to8},%zmm0,%zmm24
    53ce:	09 00 00 
    53d1:	62 62 fd 58 bc 8f 58 	vfnmadd231pd 0x958(%rdi){1to8},%zmm0,%zmm25
    53d8:	09 00 00 
    53db:	62 62 fd 58 bc 97 58 	vfnmadd231pd 0x958(%rdi){1to8},%zmm0,%zmm26
    53e2:	09 00 00 
    53e5:	62 62 fd 58 b8 9f 48 	vfmadd231pd 0x948(%rdi){1to8},%zmm0,%zmm27
    53ec:	09 00 00 
    53ef:	62 62 fd 58 b8 a7 48 	vfmadd231pd 0x948(%rdi){1to8},%zmm0,%zmm28
    53f6:	09 00 00 
    53f9:	62 62 fd 58 b8 af 38 	vfmadd231pd 0x938(%rdi){1to8},%zmm0,%zmm29
    5400:	09 00 00 
    5403:	62 62 fd 58 bc b7 d8 	vfnmadd231pd 0xbd8(%rdi){1to8},%zmm0,%zmm30
    540a:	0b 00 00 
    540d:	62 62 fd 58 bc bf f8 	vfnmadd231pd 0xbf8(%rdi){1to8},%zmm0,%zmm31
    5414:	0b 00 00 
    5417:	62 f1 fd 48 10 86 00 	vmovupd 0xe48400(%rsi),%zmm0
    541e:	84 e4 00 
    5421:	62 62 fd 58 b8 87 40 	vfmadd231pd 0x940(%rdi){1to8},%zmm0,%zmm24
    5428:	09 00 00 
    542b:	62 62 fd 58 bc 8f 50 	vfnmadd231pd 0x950(%rdi){1to8},%zmm0,%zmm25
    5432:	09 00 00 
    5435:	62 62 fd 58 b8 97 60 	vfmadd231pd 0x960(%rdi){1to8},%zmm0,%zmm26
    543c:	09 00 00 
    543f:	62 62 fd 58 b8 9f 78 	vfmadd231pd 0x978(%rdi){1to8},%zmm0,%zmm27
    5446:	09 00 00 
    5449:	62 62 fd 58 bc a7 30 	vfnmadd231pd 0x930(%rdi){1to8},%zmm0,%zmm28
    5450:	09 00 00 
    5453:	62 62 fd 58 bc af 80 	vfnmadd231pd 0x980(%rdi){1to8},%zmm0,%zmm29
    545a:	09 00 00 
    545d:	62 62 fd 58 b8 b7 e0 	vfmadd231pd 0xbe0(%rdi){1to8},%zmm0,%zmm30
    5464:	0b 00 00 
    5467:	62 62 fd 58 bc bf f0 	vfnmadd231pd 0xbf0(%rdi){1to8},%zmm0,%zmm31
    546e:	0b 00 00 
    5471:	62 f1 fd 48 10 86 00 	vmovupd 0xea6000(%rsi),%zmm0
    5478:	60 ea 00 
    547b:	62 62 fd 58 b8 87 48 	vfmadd231pd 0x948(%rdi){1to8},%zmm0,%zmm24
    5482:	09 00 00 
    5485:	62 62 fd 58 b8 8f 48 	vfmadd231pd 0x948(%rdi){1to8},%zmm0,%zmm25
    548c:	09 00 00 
    548f:	62 62 fd 58 b8 97 38 	vfmadd231pd 0x938(%rdi){1to8},%zmm0,%zmm26
    5496:	09 00 00 
    5499:	62 62 fd 58 b8 9f 38 	vfmadd231pd 0x938(%rdi){1to8},%zmm0,%zmm27
    54a0:	09 00 00 
    54a3:	62 62 fd 58 bc a7 58 	vfnmadd231pd 0x958(%rdi){1to8},%zmm0,%zmm28
    54aa:	09 00 00 
    54ad:	62 62 fd 58 bc af 58 	vfnmadd231pd 0x958(%rdi){1to8},%zmm0,%zmm29
    54b4:	09 00 00 
    54b7:	62 62 fd 58 b8 b7 e8 	vfmadd231pd 0xbe8(%rdi){1to8},%zmm0,%zmm30
    54be:	0b 00 00 
    54c1:	62 62 fd 58 b8 bf e8 	vfmadd231pd 0xbe8(%rdi){1to8},%zmm0,%zmm31
    54c8:	0b 00 00 
    54cb:	62 f1 fd 48 10 86 00 	vmovupd 0xf03c00(%rsi),%zmm0
    54d2:	3c f0 00 
    54d5:	62 62 fd 58 bc 87 50 	vfnmadd231pd 0x950(%rdi){1to8},%zmm0,%zmm24
    54dc:	09 00 00 
    54df:	62 62 fd 58 b8 8f 40 	vfmadd231pd 0x940(%rdi){1to8},%zmm0,%zmm25
    54e6:	09 00 00 
    54e9:	62 62 fd 58 b8 97 78 	vfmadd231pd 0x978(%rdi){1to8},%zmm0,%zmm26
    54f0:	09 00 00 
    54f3:	62 62 fd 58 b8 9f 60 	vfmadd231pd 0x960(%rdi){1to8},%zmm0,%zmm27
    54fa:	09 00 00 
    54fd:	62 62 fd 58 bc a7 80 	vfnmadd231pd 0x980(%rdi){1to8},%zmm0,%zmm28
    5504:	09 00 00 
    5507:	62 62 fd 58 bc af 30 	vfnmadd231pd 0x930(%rdi){1to8},%zmm0,%zmm29
    550e:	09 00 00 
    5511:	62 62 fd 58 bc b7 f0 	vfnmadd231pd 0xbf0(%rdi){1to8},%zmm0,%zmm30
    5518:	0b 00 00 
    551b:	62 62 fd 58 b8 bf e0 	vfmadd231pd 0xbe0(%rdi){1to8},%zmm0,%zmm31
    5522:	0b 00 00 
    5525:	62 f1 fd 48 10 86 00 	vmovupd 0xf61800(%rsi),%zmm0
    552c:	18 f6 00 
    552f:	62 62 fd 58 bc 87 58 	vfnmadd231pd 0x958(%rdi){1to8},%zmm0,%zmm24
    5536:	09 00 00 
    5539:	62 62 fd 58 b8 8f 38 	vfmadd231pd 0x938(%rdi){1to8},%zmm0,%zmm25
    5540:	09 00 00 
    5543:	62 62 fd 58 b8 97 48 	vfmadd231pd 0x948(%rdi){1to8},%zmm0,%zmm26
    554a:	09 00 00 
    554d:	62 62 fd 58 bc 9f 58 	vfnmadd231pd 0x958(%rdi){1to8},%zmm0,%zmm27
    5554:	09 00 00 
    5557:	62 62 fd 58 b8 a7 38 	vfmadd231pd 0x938(%rdi){1to8},%zmm0,%zmm28
    555e:	09 00 00 
    5561:	62 62 fd 58 b8 af 48 	vfmadd231pd 0x948(%rdi){1to8},%zmm0,%zmm29
    5568:	09 00 00 
    556b:	62 62 fd 58 bc b7 f8 	vfnmadd231pd 0xbf8(%rdi){1to8},%zmm0,%zmm30
    5572:	0b 00 00 
    5575:	62 62 fd 58 bc bf d8 	vfnmadd231pd 0xbd8(%rdi){1to8},%zmm0,%zmm31
    557c:	0b 00 00 
    557f:	62 f1 fd 48 10 86 00 	vmovupd 0xfbf400(%rsi),%zmm0
    5586:	f4 fb 00 
    5589:	62 62 fd 58 b8 87 60 	vfmadd231pd 0x960(%rdi){1to8},%zmm0,%zmm24
    5590:	09 00 00 
    5593:	62 62 fd 58 bc 8f 80 	vfnmadd231pd 0x980(%rdi){1to8},%zmm0,%zmm25
    559a:	09 00 00 
    559d:	62 62 fd 58 bc 97 30 	vfnmadd231pd 0x930(%rdi){1to8},%zmm0,%zmm26
    55a4:	09 00 00 
    55a7:	62 62 fd 58 bc 9f 50 	vfnmadd231pd 0x950(%rdi){1to8},%zmm0,%zmm27
    55ae:	09 00 00 
    55b1:	62 62 fd 58 b8 a7 40 	vfmadd231pd 0x940(%rdi){1to8},%zmm0,%zmm28
    55b8:	09 00 00 
    55bb:	62 62 fd 58 b8 af 78 	vfmadd231pd 0x978(%rdi){1to8},%zmm0,%zmm29
    55c2:	09 00 00 
    55c5:	62 62 fd 58 b8 b7 00 	vfmadd231pd 0xc00(%rdi){1to8},%zmm0,%zmm30
    55cc:	0c 00 00 
    55cf:	62 62 fd 58 bc bf 20 	vfnmadd231pd 0xc20(%rdi){1to8},%zmm0,%zmm31
    55d6:	0c 00 00 
    55d9:	62 f1 fd 48 10 86 00 	vmovupd 0x101d000(%rsi),%zmm0
    55e0:	d0 01 01 
    55e3:	62 62 fd 58 bc 87 68 	vfnmadd231pd 0x968(%rdi){1to8},%zmm0,%zmm24
    55ea:	09 00 00 
    55ed:	62 62 fd 58 b8 8f 28 	vfmadd231pd 0x928(%rdi){1to8},%zmm0,%zmm25
    55f4:	09 00 00 
    55f7:	62 62 fd 58 b8 97 28 	vfmadd231pd 0x928(%rdi){1to8},%zmm0,%zmm26
    55fe:	09 00 00 
    5601:	62 62 fd 58 bc 9f 70 	vfnmadd231pd 0x970(%rdi){1to8},%zmm0,%zmm27
    5608:	09 00 00 
    560b:	62 62 fd 58 bc a7 70 	vfnmadd231pd 0x970(%rdi){1to8},%zmm0,%zmm28
    5612:	09 00 00 
    5615:	62 62 fd 58 bc af 68 	vfnmadd231pd 0x968(%rdi){1to8},%zmm0,%zmm29
    561c:	09 00 00 
    561f:	62 62 fd 58 bc b7 08 	vfnmadd231pd 0xc08(%rdi){1to8},%zmm0,%zmm30
    5626:	0c 00 00 
    5629:	62 62 fd 58 b8 bf c8 	vfmadd231pd 0xbc8(%rdi){1to8},%zmm0,%zmm31
    5630:	0b 00 00 
    5633:	62 f1 fd 48 10 86 00 	vmovupd 0x107ac00(%rsi),%zmm0
    563a:	ac 07 01 
    563d:	62 62 fd 58 bc 87 70 	vfnmadd231pd 0x970(%rdi){1to8},%zmm0,%zmm24
    5644:	09 00 00 
    5647:	62 62 fd 58 bc 8f 70 	vfnmadd231pd 0x970(%rdi){1to8},%zmm0,%zmm25
    564e:	09 00 00 
    5651:	62 62 fd 58 bc 97 68 	vfnmadd231pd 0x968(%rdi){1to8},%zmm0,%zmm26
    5658:	09 00 00 
    565b:	62 62 fd 58 bc 9f 68 	vfnmadd231pd 0x968(%rdi){1to8},%zmm0,%zmm27
    5662:	09 00 00 
    5665:	62 62 fd 58 b8 a7 28 	vfmadd231pd 0x928(%rdi){1to8},%zmm0,%zmm28
    566c:	09 00 00 
    566f:	62 62 fd 58 b8 af 28 	vfmadd231pd 0x928(%rdi){1to8},%zmm0,%zmm29
    5676:	09 00 00 
    5679:	62 62 fd 58 b8 b7 10 	vfmadd231pd 0xc10(%rdi){1to8},%zmm0,%zmm30
    5680:	0c 00 00 
    5683:	62 62 fd 58 b8 bf 10 	vfmadd231pd 0xc10(%rdi){1to8},%zmm0,%zmm31
    568a:	0c 00 00 
    568d:	62 f1 fd 48 10 86 00 	vmovupd 0x10d8800(%rsi),%zmm0
    5694:	88 0d 01 
    5697:	62 62 fd 58 b8 87 78 	vfmadd231pd 0x978(%rdi){1to8},%zmm0,%zmm24
    569e:	09 00 00 
    56a1:	62 62 fd 58 bc 8f 30 	vfnmadd231pd 0x930(%rdi){1to8},%zmm0,%zmm25
    56a8:	09 00 00 
    56ab:	62 62 fd 58 bc 97 80 	vfnmadd231pd 0x980(%rdi){1to8},%zmm0,%zmm26
    56b2:	09 00 00 
    56b5:	62 62 fd 58 b8 9f 40 	vfmadd231pd 0x940(%rdi){1to8},%zmm0,%zmm27
    56bc:	09 00 00 
    56bf:	62 62 fd 58 bc a7 50 	vfnmadd231pd 0x950(%rdi){1to8},%zmm0,%zmm28
    56c6:	09 00 00 
    56c9:	62 62 fd 58 b8 af 60 	vfmadd231pd 0x960(%rdi){1to8},%zmm0,%zmm29
    56d0:	09 00 00 
    56d3:	62 62 fd 58 b8 b7 18 	vfmadd231pd 0xc18(%rdi){1to8},%zmm0,%zmm30
    56da:	0c 00 00 
    56dd:	62 62 fd 58 bc bf d0 	vfnmadd231pd 0xbd0(%rdi){1to8},%zmm0,%zmm31
    56e4:	0b 00 00 
    56e7:	62 f1 fd 48 10 86 00 	vmovupd 0x1136400(%rsi),%zmm0
    56ee:	64 13 01 
    56f1:	62 62 fd 58 bc 87 80 	vfnmadd231pd 0x980(%rdi){1to8},%zmm0,%zmm24
    56f8:	09 00 00 
    56fb:	62 62 fd 58 b8 8f 60 	vfmadd231pd 0x960(%rdi){1to8},%zmm0,%zmm25
    5702:	09 00 00 
    5705:	62 62 fd 58 bc 97 50 	vfnmadd231pd 0x950(%rdi){1to8},%zmm0,%zmm26
    570c:	09 00 00 
    570f:	62 62 fd 58 bc 9f 30 	vfnmadd231pd 0x930(%rdi){1to8},%zmm0,%zmm27
    5716:	09 00 00 
    5719:	62 62 fd 58 b8 a7 78 	vfmadd231pd 0x978(%rdi){1to8},%zmm0,%zmm28
    5720:	09 00 00 
    5723:	62 62 fd 58 b8 af 40 	vfmadd231pd 0x940(%rdi){1to8},%zmm0,%zmm29
    572a:	09 00 00 
    572d:	62 62 fd 58 bc b7 20 	vfnmadd231pd 0xc20(%rdi){1to8},%zmm0,%zmm30
    5734:	0c 00 00 
    5737:	62 62 fd 58 b8 bf 00 	vfmadd231pd 0xc00(%rdi){1to8},%zmm0,%zmm31
    573e:	0c 00 00 
    5741:	62 f1 fd 48 10 86 00 	vmovupd 0x1194000(%rsi),%zmm0
    5748:	40 19 01 
    574b:	62 62 fd 58 b8 87 88 	vfmadd231pd 0x988(%rdi){1to8},%zmm0,%zmm24
    5752:	09 00 00 
    5755:	62 62 fd 58 bc 8f c8 	vfnmadd231pd 0x9c8(%rdi){1to8},%zmm0,%zmm25
    575c:	09 00 00 
    575f:	62 62 fd 58 b8 97 d0 	vfmadd231pd 0x9d0(%rdi){1to8},%zmm0,%zmm26
    5766:	09 00 00 
    5769:	62 62 fd 58 b8 9f 88 	vfmadd231pd 0x988(%rdi){1to8},%zmm0,%zmm27
    5770:	09 00 00 
    5773:	62 62 fd 58 bc a7 c8 	vfnmadd231pd 0x9c8(%rdi){1to8},%zmm0,%zmm28
    577a:	09 00 00 
    577d:	62 62 fd 58 b8 af d0 	vfmadd231pd 0x9d0(%rdi){1to8},%zmm0,%zmm29
    5784:	09 00 00 
    5787:	62 62 fd 58 b8 b7 28 	vfmadd231pd 0xc28(%rdi){1to8},%zmm0,%zmm30
    578e:	0c 00 00 
    5791:	62 62 fd 58 bc bf 68 	vfnmadd231pd 0xc68(%rdi){1to8},%zmm0,%zmm31
    5798:	0c 00 00 
    579b:	62 f1 fd 48 10 86 00 	vmovupd 0x11f1c00(%rsi),%zmm0
    57a2:	1c 1f 01 
    57a5:	62 62 fd 58 bc 87 90 	vfnmadd231pd 0x990(%rdi){1to8},%zmm0,%zmm24
    57ac:	09 00 00 
    57af:	62 62 fd 58 b8 8f d8 	vfmadd231pd 0x9d8(%rdi){1to8},%zmm0,%zmm25
    57b6:	09 00 00 
    57b9:	62 62 fd 58 b8 97 a0 	vfmadd231pd 0x9a0(%rdi){1to8},%zmm0,%zmm26
    57c0:	09 00 00 
    57c3:	62 62 fd 58 bc 9f e0 	vfnmadd231pd 0x9e0(%rdi){1to8},%zmm0,%zmm27
    57ca:	09 00 00 
    57cd:	62 62 fd 58 b8 a7 c0 	vfmadd231pd 0x9c0(%rdi){1to8},%zmm0,%zmm28
    57d4:	09 00 00 
    57d7:	62 62 fd 58 b8 af b0 	vfmadd231pd 0x9b0(%rdi){1to8},%zmm0,%zmm29
    57de:	09 00 00 
    57e1:	62 62 fd 58 b8 b7 30 	vfmadd231pd 0xc30(%rdi){1to8},%zmm0,%zmm30
    57e8:	0c 00 00 
    57eb:	62 62 fd 58 b8 bf 78 	vfmadd231pd 0xc78(%rdi){1to8},%zmm0,%zmm31
    57f2:	0c 00 00 
    57f5:	62 f1 fd 48 10 86 00 	vmovupd 0x124f800(%rsi),%zmm0
    57fc:	f8 24 01 
    57ff:	62 62 fd 58 b8 87 98 	vfmadd231pd 0x998(%rdi){1to8},%zmm0,%zmm24
    5806:	09 00 00 
    5809:	62 62 fd 58 bc 8f b8 	vfnmadd231pd 0x9b8(%rdi){1to8},%zmm0,%zmm25
    5810:	09 00 00 
    5813:	62 62 fd 58 bc 97 b8 	vfnmadd231pd 0x9b8(%rdi){1to8},%zmm0,%zmm26
    581a:	09 00 00 
    581d:	62 62 fd 58 bc 9f a8 	vfnmadd231pd 0x9a8(%rdi){1to8},%zmm0,%zmm27
    5824:	09 00 00 
    5827:	62 62 fd 58 bc a7 a8 	vfnmadd231pd 0x9a8(%rdi){1to8},%zmm0,%zmm28
    582e:	09 00 00 
    5831:	62 62 fd 58 b8 af 98 	vfmadd231pd 0x998(%rdi){1to8},%zmm0,%zmm29
    5838:	09 00 00 
    583b:	62 62 fd 58 b8 b7 38 	vfmadd231pd 0xc38(%rdi){1to8},%zmm0,%zmm30
    5842:	0c 00 00 
    5845:	62 62 fd 58 bc bf 58 	vfnmadd231pd 0xc58(%rdi){1to8},%zmm0,%zmm31
    584c:	0c 00 00 
    584f:	62 f1 fd 48 10 86 00 	vmovupd 0x12ad400(%rsi),%zmm0
    5856:	d4 2a 01 
    5859:	62 62 fd 58 b8 87 a0 	vfmadd231pd 0x9a0(%rdi){1to8},%zmm0,%zmm24
    5860:	09 00 00 
    5863:	62 62 fd 58 b8 8f b0 	vfmadd231pd 0x9b0(%rdi){1to8},%zmm0,%zmm25
    586a:	09 00 00 
    586d:	62 62 fd 58 b8 97 c0 	vfmadd231pd 0x9c0(%rdi){1to8},%zmm0,%zmm26
    5874:	09 00 00 
    5877:	62 62 fd 58 b8 9f d8 	vfmadd231pd 0x9d8(%rdi){1to8},%zmm0,%zmm27
    587e:	09 00 00 
    5881:	62 62 fd 58 bc a7 90 	vfnmadd231pd 0x990(%rdi){1to8},%zmm0,%zmm28
    5888:	09 00 00 
    588b:	62 62 fd 58 bc af e0 	vfnmadd231pd 0x9e0(%rdi){1to8},%zmm0,%zmm29
    5892:	09 00 00 
    5895:	62 62 fd 58 b8 b7 40 	vfmadd231pd 0xc40(%rdi){1to8},%zmm0,%zmm30
    589c:	0c 00 00 
    589f:	62 62 fd 58 b8 bf 50 	vfmadd231pd 0xc50(%rdi){1to8},%zmm0,%zmm31
    58a6:	0c 00 00 
    58a9:	62 f1 fd 48 10 86 00 	vmovupd 0x130b000(%rsi),%zmm0
    58b0:	b0 30 01 
    58b3:	62 62 fd 58 bc 87 a8 	vfnmadd231pd 0x9a8(%rdi){1to8},%zmm0,%zmm24
    58ba:	09 00 00 
    58bd:	62 62 fd 58 bc 8f a8 	vfnmadd231pd 0x9a8(%rdi){1to8},%zmm0,%zmm25
    58c4:	09 00 00 
    58c7:	62 62 fd 58 b8 97 98 	vfmadd231pd 0x998(%rdi){1to8},%zmm0,%zmm26
    58ce:	09 00 00 
    58d1:	62 62 fd 58 b8 9f 98 	vfmadd231pd 0x998(%rdi){1to8},%zmm0,%zmm27
    58d8:	09 00 00 
    58db:	62 62 fd 58 bc a7 b8 	vfnmadd231pd 0x9b8(%rdi){1to8},%zmm0,%zmm28
    58e2:	09 00 00 
    58e5:	62 62 fd 58 bc af b8 	vfnmadd231pd 0x9b8(%rdi){1to8},%zmm0,%zmm29
    58ec:	09 00 00 
    58ef:	62 62 fd 58 b8 b7 48 	vfmadd231pd 0xc48(%rdi){1to8},%zmm0,%zmm30
    58f6:	0c 00 00 
    58f9:	62 62 fd 58 b8 bf 48 	vfmadd231pd 0xc48(%rdi){1to8},%zmm0,%zmm31
    5900:	0c 00 00 
    5903:	62 f1 fd 48 10 86 00 	vmovupd 0x1368c00(%rsi),%zmm0
    590a:	8c 36 01 
    590d:	62 62 fd 58 b8 87 b0 	vfmadd231pd 0x9b0(%rdi){1to8},%zmm0,%zmm24
    5914:	09 00 00 
    5917:	62 62 fd 58 b8 8f a0 	vfmadd231pd 0x9a0(%rdi){1to8},%zmm0,%zmm25
    591e:	09 00 00 
    5921:	62 62 fd 58 b8 97 d8 	vfmadd231pd 0x9d8(%rdi){1to8},%zmm0,%zmm26
    5928:	09 00 00 
    592b:	62 62 fd 58 b8 9f c0 	vfmadd231pd 0x9c0(%rdi){1to8},%zmm0,%zmm27
    5932:	09 00 00 
    5935:	62 62 fd 58 bc a7 e0 	vfnmadd231pd 0x9e0(%rdi){1to8},%zmm0,%zmm28
    593c:	09 00 00 
    593f:	62 62 fd 58 bc af 90 	vfnmadd231pd 0x990(%rdi){1to8},%zmm0,%zmm29
    5946:	09 00 00 
    5949:	62 62 fd 58 b8 b7 50 	vfmadd231pd 0xc50(%rdi){1to8},%zmm0,%zmm30
    5950:	0c 00 00 
    5953:	62 62 fd 58 b8 bf 40 	vfmadd231pd 0xc40(%rdi){1to8},%zmm0,%zmm31
    595a:	0c 00 00 
    595d:	62 f1 fd 48 10 86 00 	vmovupd 0x13c6800(%rsi),%zmm0
    5964:	68 3c 01 
    5967:	62 62 fd 58 bc 87 b8 	vfnmadd231pd 0x9b8(%rdi){1to8},%zmm0,%zmm24
    596e:	09 00 00 
    5971:	62 62 fd 58 b8 8f 98 	vfmadd231pd 0x998(%rdi){1to8},%zmm0,%zmm25
    5978:	09 00 00 
    597b:	62 62 fd 58 bc 97 a8 	vfnmadd231pd 0x9a8(%rdi){1to8},%zmm0,%zmm26
    5982:	09 00 00 
    5985:	62 62 fd 58 bc 9f b8 	vfnmadd231pd 0x9b8(%rdi){1to8},%zmm0,%zmm27
    598c:	09 00 00 
    598f:	62 62 fd 58 b8 a7 98 	vfmadd231pd 0x998(%rdi){1to8},%zmm0,%zmm28
    5996:	09 00 00 
    5999:	62 62 fd 58 bc af a8 	vfnmadd231pd 0x9a8(%rdi){1to8},%zmm0,%zmm29
    59a0:	09 00 00 
    59a3:	62 62 fd 58 bc b7 58 	vfnmadd231pd 0xc58(%rdi){1to8},%zmm0,%zmm30
    59aa:	0c 00 00 
    59ad:	62 62 fd 58 b8 bf 38 	vfmadd231pd 0xc38(%rdi){1to8},%zmm0,%zmm31
    59b4:	0c 00 00 
    59b7:	62 f1 fd 48 10 86 00 	vmovupd 0x1424400(%rsi),%zmm0
    59be:	44 42 01 
    59c1:	62 62 fd 58 b8 87 c0 	vfmadd231pd 0x9c0(%rdi){1to8},%zmm0,%zmm24
    59c8:	09 00 00 
    59cb:	62 62 fd 58 bc 8f e0 	vfnmadd231pd 0x9e0(%rdi){1to8},%zmm0,%zmm25
    59d2:	09 00 00 
    59d5:	62 62 fd 58 bc 97 90 	vfnmadd231pd 0x990(%rdi){1to8},%zmm0,%zmm26
    59dc:	09 00 00 
    59df:	62 62 fd 58 b8 9f b0 	vfmadd231pd 0x9b0(%rdi){1to8},%zmm0,%zmm27
    59e6:	09 00 00 
    59e9:	62 62 fd 58 b8 a7 a0 	vfmadd231pd 0x9a0(%rdi){1to8},%zmm0,%zmm28
    59f0:	09 00 00 
    59f3:	62 62 fd 58 b8 af d8 	vfmadd231pd 0x9d8(%rdi){1to8},%zmm0,%zmm29
    59fa:	09 00 00 
    59fd:	62 62 fd 58 bc b7 60 	vfnmadd231pd 0xc60(%rdi){1to8},%zmm0,%zmm30
    5a04:	0c 00 00 
    5a07:	62 62 fd 58 b8 bf 80 	vfmadd231pd 0xc80(%rdi){1to8},%zmm0,%zmm31
    5a0e:	0c 00 00 
    5a11:	62 f1 fd 48 10 86 00 	vmovupd 0x1482000(%rsi),%zmm0
    5a18:	20 48 01 
    5a1b:	62 62 fd 58 bc 87 c8 	vfnmadd231pd 0x9c8(%rdi){1to8},%zmm0,%zmm24
    5a22:	09 00 00 
    5a25:	62 62 fd 58 b8 8f 88 	vfmadd231pd 0x988(%rdi){1to8},%zmm0,%zmm25
    5a2c:	09 00 00 
    5a2f:	62 62 fd 58 b8 97 88 	vfmadd231pd 0x988(%rdi){1to8},%zmm0,%zmm26
    5a36:	09 00 00 
    5a39:	62 62 fd 58 b8 9f d0 	vfmadd231pd 0x9d0(%rdi){1to8},%zmm0,%zmm27
    5a40:	09 00 00 
    5a43:	62 62 fd 58 b8 a7 d0 	vfmadd231pd 0x9d0(%rdi){1to8},%zmm0,%zmm28
    5a4a:	09 00 00 
    5a4d:	62 62 fd 58 bc af c8 	vfnmadd231pd 0x9c8(%rdi){1to8},%zmm0,%zmm29
    5a54:	09 00 00 
    5a57:	62 62 fd 58 bc b7 68 	vfnmadd231pd 0xc68(%rdi){1to8},%zmm0,%zmm30
    5a5e:	0c 00 00 
    5a61:	62 62 fd 58 b8 bf 28 	vfmadd231pd 0xc28(%rdi){1to8},%zmm0,%zmm31
    5a68:	0c 00 00 
    5a6b:	62 f1 fd 48 10 86 00 	vmovupd 0x14dfc00(%rsi),%zmm0
    5a72:	fc 4d 01 
    5a75:	62 62 fd 58 b8 87 d0 	vfmadd231pd 0x9d0(%rdi){1to8},%zmm0,%zmm24
    5a7c:	09 00 00 
    5a7f:	62 62 fd 58 b8 8f d0 	vfmadd231pd 0x9d0(%rdi){1to8},%zmm0,%zmm25
    5a86:	09 00 00 
    5a89:	62 62 fd 58 bc 97 c8 	vfnmadd231pd 0x9c8(%rdi){1to8},%zmm0,%zmm26
    5a90:	09 00 00 
    5a93:	62 62 fd 58 bc 9f c8 	vfnmadd231pd 0x9c8(%rdi){1to8},%zmm0,%zmm27
    5a9a:	09 00 00 
    5a9d:	62 62 fd 58 b8 a7 88 	vfmadd231pd 0x988(%rdi){1to8},%zmm0,%zmm28
    5aa4:	09 00 00 
    5aa7:	62 62 fd 58 b8 af 88 	vfmadd231pd 0x988(%rdi){1to8},%zmm0,%zmm29
    5aae:	09 00 00 
    5ab1:	62 62 fd 58 b8 b7 70 	vfmadd231pd 0xc70(%rdi){1to8},%zmm0,%zmm30
    5ab8:	0c 00 00 
    5abb:	62 62 fd 58 b8 bf 70 	vfmadd231pd 0xc70(%rdi){1to8},%zmm0,%zmm31
    5ac2:	0c 00 00 
    5ac5:	62 f1 fd 48 10 86 00 	vmovupd 0x153d800(%rsi),%zmm0
    5acc:	d8 53 01 
    5acf:	62 62 fd 58 b8 87 d8 	vfmadd231pd 0x9d8(%rdi){1to8},%zmm0,%zmm24
    5ad6:	09 00 00 
    5ad9:	62 62 fd 58 bc 8f 90 	vfnmadd231pd 0x990(%rdi){1to8},%zmm0,%zmm25
    5ae0:	09 00 00 
    5ae3:	62 62 fd 58 bc 97 e0 	vfnmadd231pd 0x9e0(%rdi){1to8},%zmm0,%zmm26
    5aea:	09 00 00 
    5aed:	62 62 fd 58 b8 9f a0 	vfmadd231pd 0x9a0(%rdi){1to8},%zmm0,%zmm27
    5af4:	09 00 00 
    5af7:	62 62 fd 58 b8 a7 b0 	vfmadd231pd 0x9b0(%rdi){1to8},%zmm0,%zmm28
    5afe:	09 00 00 
    5b01:	62 62 fd 58 b8 af c0 	vfmadd231pd 0x9c0(%rdi){1to8},%zmm0,%zmm29
    5b08:	09 00 00 
    5b0b:	62 62 fd 58 b8 b7 78 	vfmadd231pd 0xc78(%rdi){1to8},%zmm0,%zmm30
    5b12:	0c 00 00 
    5b15:	62 62 fd 58 b8 bf 30 	vfmadd231pd 0xc30(%rdi){1to8},%zmm0,%zmm31
    5b1c:	0c 00 00 
    5b1f:	62 f1 fd 48 10 86 00 	vmovupd 0x159b400(%rsi),%zmm0
    5b26:	b4 59 01 
    5b29:	62 62 fd 58 bc 87 e0 	vfnmadd231pd 0x9e0(%rdi){1to8},%zmm0,%zmm24
    5b30:	09 00 00 
    5b33:	62 62 fd 58 b8 8f c0 	vfmadd231pd 0x9c0(%rdi){1to8},%zmm0,%zmm25
    5b3a:	09 00 00 
    5b3d:	62 62 fd 58 b8 97 b0 	vfmadd231pd 0x9b0(%rdi){1to8},%zmm0,%zmm26
    5b44:	09 00 00 
    5b47:	62 62 fd 58 bc 9f 90 	vfnmadd231pd 0x990(%rdi){1to8},%zmm0,%zmm27
    5b4e:	09 00 00 
    5b51:	62 62 fd 58 b8 a7 d8 	vfmadd231pd 0x9d8(%rdi){1to8},%zmm0,%zmm28
    5b58:	09 00 00 
    5b5b:	62 62 fd 58 b8 af a0 	vfmadd231pd 0x9a0(%rdi){1to8},%zmm0,%zmm29
    5b62:	09 00 00 
    5b65:	62 62 fd 58 b8 b7 80 	vfmadd231pd 0xc80(%rdi){1to8},%zmm0,%zmm30
    5b6c:	0c 00 00 
    5b6f:	62 62 fd 58 bc bf 60 	vfnmadd231pd 0xc60(%rdi){1to8},%zmm0,%zmm31
    5b76:	0c 00 00 
    5b79:	62 f1 fd 48 10 86 00 	vmovupd 0x15f9000(%rsi),%zmm0
    5b80:	90 5f 01 
    5b83:	62 62 fd 58 bc 87 e8 	vfnmadd231pd 0x9e8(%rdi){1to8},%zmm0,%zmm24
    5b8a:	09 00 00 
    5b8d:	62 62 fd 58 b8 8f 28 	vfmadd231pd 0xa28(%rdi){1to8},%zmm0,%zmm25
    5b94:	0a 00 00 
    5b97:	62 62 fd 58 b8 97 10 	vfmadd231pd 0xa10(%rdi){1to8},%zmm0,%zmm26
    5b9e:	0a 00 00 
    5ba1:	62 62 fd 58 bc 9f 50 	vfnmadd231pd 0xa50(%rdi){1to8},%zmm0,%zmm27
    5ba8:	0a 00 00 
    5bab:	62 62 fd 58 b8 a7 60 	vfmadd231pd 0xa60(%rdi){1to8},%zmm0,%zmm28
    5bb2:	0a 00 00 
    5bb5:	62 62 fd 58 b8 af f8 	vfmadd231pd 0x9f8(%rdi){1to8},%zmm0,%zmm29
    5bbc:	09 00 00 
    5bbf:	62 62 fd 58 bc b7 88 	vfnmadd231pd 0xc88(%rdi){1to8},%zmm0,%zmm30
    5bc6:	0c 00 00 
    5bc9:	62 62 fd 58 b8 bf c8 	vfmadd231pd 0xcc8(%rdi){1to8},%zmm0,%zmm31
    5bd0:	0c 00 00 
    5bd3:	62 f1 fd 48 10 86 00 	vmovupd 0x1656c00(%rsi),%zmm0
    5bda:	6c 65 01 
    5bdd:	62 62 fd 58 bc 87 f0 	vfnmadd231pd 0x9f0(%rdi){1to8},%zmm0,%zmm24
    5be4:	09 00 00 
    5be7:	62 62 fd 58 bc 8f 80 	vfnmadd231pd 0xa80(%rdi){1to8},%zmm0,%zmm25
    5bee:	0a 00 00 
    5bf1:	62 62 fd 58 bc 97 48 	vfnmadd231pd 0xa48(%rdi){1to8},%zmm0,%zmm26
    5bf8:	0a 00 00 
    5bfb:	62 62 fd 58 bc 9f 70 	vfnmadd231pd 0xa70(%rdi){1to8},%zmm0,%zmm27
    5c02:	0a 00 00 
    5c05:	62 62 fd 58 b8 a7 20 	vfmadd231pd 0xa20(%rdi){1to8},%zmm0,%zmm28
    5c0c:	0a 00 00 
    5c0f:	62 62 fd 58 b8 af 40 	vfmadd231pd 0xa40(%rdi){1to8},%zmm0,%zmm29
    5c16:	0a 00 00 
    5c19:	62 62 fd 58 bc b7 90 	vfnmadd231pd 0xc90(%rdi){1to8},%zmm0,%zmm30
    5c20:	0c 00 00 
    5c23:	62 62 fd 58 b8 bf 20 	vfmadd231pd 0xd20(%rdi){1to8},%zmm0,%zmm31
    5c2a:	0d 00 00 
    5c2d:	62 f1 fd 48 10 86 00 	vmovupd 0x16b4800(%rsi),%zmm0
    5c34:	48 6b 01 
    5c37:	62 62 fd 58 b8 87 f8 	vfmadd231pd 0x9f8(%rdi){1to8},%zmm0,%zmm24
    5c3e:	09 00 00 
    5c41:	62 62 fd 58 b8 8f 10 	vfmadd231pd 0xa10(%rdi){1to8},%zmm0,%zmm25
    5c48:	0a 00 00 
    5c4b:	62 62 fd 58 b8 97 28 	vfmadd231pd 0xa28(%rdi){1to8},%zmm0,%zmm26
    5c52:	0a 00 00 
    5c55:	62 62 fd 58 b8 9f 60 	vfmadd231pd 0xa60(%rdi){1to8},%zmm0,%zmm27
    5c5c:	0a 00 00 
    5c5f:	62 62 fd 58 bc a7 50 	vfnmadd231pd 0xa50(%rdi){1to8},%zmm0,%zmm28
    5c66:	0a 00 00 
    5c69:	62 62 fd 58 bc af e8 	vfnmadd231pd 0x9e8(%rdi){1to8},%zmm0,%zmm29
    5c70:	09 00 00 
    5c73:	62 62 fd 58 bc b7 98 	vfnmadd231pd 0xc98(%rdi){1to8},%zmm0,%zmm30
    5c7a:	0c 00 00 
    5c7d:	62 62 fd 58 bc bf b0 	vfnmadd231pd 0xcb0(%rdi){1to8},%zmm0,%zmm31
    5c84:	0c 00 00 
    5c87:	62 f1 fd 48 10 86 00 	vmovupd 0x1712400(%rsi),%zmm0
    5c8e:	24 71 01 
    5c91:	62 62 fd 58 bc 87 00 	vfnmadd231pd 0xa00(%rdi){1to8},%zmm0,%zmm24
    5c98:	0a 00 00 
    5c9b:	62 62 fd 58 b8 8f 78 	vfmadd231pd 0xa78(%rdi){1to8},%zmm0,%zmm25
    5ca2:	0a 00 00 
    5ca5:	62 62 fd 58 bc 97 98 	vfnmadd231pd 0xa98(%rdi){1to8},%zmm0,%zmm26
    5cac:	0a 00 00 
    5caf:	62 62 fd 58 b8 9f 18 	vfmadd231pd 0xa18(%rdi){1to8},%zmm0,%zmm27
    5cb6:	0a 00 00 
    5cb9:	62 62 fd 58 bc a7 30 	vfnmadd231pd 0xa30(%rdi){1to8},%zmm0,%zmm28
    5cc0:	0a 00 00 
    5cc3:	62 62 fd 58 b8 af 88 	vfmadd231pd 0xa88(%rdi){1to8},%zmm0,%zmm29
    5cca:	0a 00 00 
    5ccd:	62 62 fd 58 b8 b7 a0 	vfmadd231pd 0xca0(%rdi){1to8},%zmm0,%zmm30
    5cd4:	0c 00 00 
    5cd7:	62 62 fd 58 b8 bf 18 	vfmadd231pd 0xd18(%rdi){1to8},%zmm0,%zmm31
    5cde:	0d 00 00 
    5ce1:	62 f1 fd 48 10 86 00 	vmovupd 0x1770000(%rsi),%zmm0
    5ce8:	00 77 01 
    5ceb:	62 62 fd 58 bc 87 08 	vfnmadd231pd 0xa08(%rdi){1to8},%zmm0,%zmm24
    5cf2:	0a 00 00 
    5cf5:	62 62 fd 58 b8 8f 38 	vfmadd231pd 0xa38(%rdi){1to8},%zmm0,%zmm25
    5cfc:	0a 00 00 
    5cff:	62 62 fd 58 bc 97 a0 	vfnmadd231pd 0xaa0(%rdi){1to8},%zmm0,%zmm26
    5d06:	0a 00 00 
    5d09:	62 62 fd 58 bc 9f 58 	vfnmadd231pd 0xa58(%rdi){1to8},%zmm0,%zmm27
    5d10:	0a 00 00 
    5d13:	62 62 fd 58 b8 a7 68 	vfmadd231pd 0xa68(%rdi){1to8},%zmm0,%zmm28
    5d1a:	0a 00 00 
    5d1d:	62 62 fd 58 bc af 90 	vfnmadd231pd 0xa90(%rdi){1to8},%zmm0,%zmm29
    5d24:	0a 00 00 
    5d27:	62 62 fd 58 bc b7 a8 	vfnmadd231pd 0xca8(%rdi){1to8},%zmm0,%zmm30
    5d2e:	0c 00 00 
    5d31:	62 62 fd 58 b8 bf d8 	vfmadd231pd 0xcd8(%rdi){1to8},%zmm0,%zmm31
    5d38:	0c 00 00 
    5d3b:	62 f1 fd 48 10 86 00 	vmovupd 0x17cdc00(%rsi),%zmm0
    5d42:	dc 7c 01 
    5d45:	62 62 fd 58 b8 87 10 	vfmadd231pd 0xa10(%rdi){1to8},%zmm0,%zmm24
    5d4c:	0a 00 00 
    5d4f:	62 62 fd 58 b8 8f f8 	vfmadd231pd 0x9f8(%rdi){1to8},%zmm0,%zmm25
    5d56:	09 00 00 
    5d59:	62 62 fd 58 b8 97 60 	vfmadd231pd 0xa60(%rdi){1to8},%zmm0,%zmm26
    5d60:	0a 00 00 
    5d63:	62 62 fd 58 b8 9f 28 	vfmadd231pd 0xa28(%rdi){1to8},%zmm0,%zmm27
    5d6a:	0a 00 00 
    5d6d:	62 62 fd 58 bc a7 e8 	vfnmadd231pd 0x9e8(%rdi){1to8},%zmm0,%zmm28
    5d74:	09 00 00 
    5d77:	62 62 fd 58 bc af 50 	vfnmadd231pd 0xa50(%rdi){1to8},%zmm0,%zmm29
    5d7e:	0a 00 00 
    5d81:	62 62 fd 58 bc b7 b0 	vfnmadd231pd 0xcb0(%rdi){1to8},%zmm0,%zmm30
    5d88:	0c 00 00 
    5d8b:	62 62 fd 58 bc bf 98 	vfnmadd231pd 0xc98(%rdi){1to8},%zmm0,%zmm31
    5d92:	0c 00 00 
    5d95:	62 f1 fd 48 10 86 00 	vmovupd 0x182b800(%rsi),%zmm0
    5d9c:	b8 82 01 
    5d9f:	62 62 fd 58 b8 87 18 	vfmadd231pd 0xa18(%rdi){1to8},%zmm0,%zmm24
    5da6:	0a 00 00 
    5da9:	62 62 fd 58 bc 8f 30 	vfnmadd231pd 0xa30(%rdi){1to8},%zmm0,%zmm25
    5db0:	0a 00 00 
    5db3:	62 62 fd 58 b8 97 88 	vfmadd231pd 0xa88(%rdi){1to8},%zmm0,%zmm26
    5dba:	0a 00 00 
    5dbd:	62 62 fd 58 bc 9f 00 	vfnmadd231pd 0xa00(%rdi){1to8},%zmm0,%zmm27
    5dc4:	0a 00 00 
    5dc7:	62 62 fd 58 b8 a7 78 	vfmadd231pd 0xa78(%rdi){1to8},%zmm0,%zmm28
    5dce:	0a 00 00 
    5dd1:	62 62 fd 58 bc af 98 	vfnmadd231pd 0xa98(%rdi){1to8},%zmm0,%zmm29
    5dd8:	0a 00 00 
    5ddb:	62 62 fd 58 bc b7 b8 	vfnmadd231pd 0xcb8(%rdi){1to8},%zmm0,%zmm30
    5de2:	0c 00 00 
    5de5:	62 62 fd 58 b8 bf d0 	vfmadd231pd 0xcd0(%rdi){1to8},%zmm0,%zmm31
    5dec:	0c 00 00 
    5def:	62 f1 fd 48 10 86 00 	vmovupd 0x1889400(%rsi),%zmm0
    5df6:	94 88 01 
    5df9:	62 62 fd 58 b8 87 20 	vfmadd231pd 0xa20(%rdi){1to8},%zmm0,%zmm24
    5e00:	0a 00 00 
    5e03:	62 62 fd 58 bc 8f 70 	vfnmadd231pd 0xa70(%rdi){1to8},%zmm0,%zmm25
    5e0a:	0a 00 00 
    5e0d:	62 62 fd 58 bc 97 f0 	vfnmadd231pd 0x9f0(%rdi){1to8},%zmm0,%zmm26
    5e14:	09 00 00 
    5e17:	62 62 fd 58 b8 9f 40 	vfmadd231pd 0xa40(%rdi){1to8},%zmm0,%zmm27
    5e1e:	0a 00 00 
    5e21:	62 62 fd 58 bc a7 48 	vfnmadd231pd 0xa48(%rdi){1to8},%zmm0,%zmm28
    5e28:	0a 00 00 
    5e2b:	62 62 fd 58 bc af 80 	vfnmadd231pd 0xa80(%rdi){1to8},%zmm0,%zmm29
    5e32:	0a 00 00 
    5e35:	62 62 fd 58 b8 b7 c0 	vfmadd231pd 0xcc0(%rdi){1to8},%zmm0,%zmm30
    5e3c:	0c 00 00 
    5e3f:	62 62 fd 58 bc bf 10 	vfnmadd231pd 0xd10(%rdi){1to8},%zmm0,%zmm31
    5e46:	0d 00 00 
    5e49:	62 f1 fd 48 10 86 00 	vmovupd 0x18e7000(%rsi),%zmm0
    5e50:	70 8e 01 
    5e53:	62 62 fd 58 b8 87 28 	vfmadd231pd 0xa28(%rdi){1to8},%zmm0,%zmm24
    5e5a:	0a 00 00 
    5e5d:	62 62 fd 58 bc 8f e8 	vfnmadd231pd 0x9e8(%rdi){1to8},%zmm0,%zmm25
    5e64:	09 00 00 
    5e67:	62 62 fd 58 bc 97 50 	vfnmadd231pd 0xa50(%rdi){1to8},%zmm0,%zmm26
    5e6e:	0a 00 00 
    5e71:	62 62 fd 58 b8 9f 10 	vfmadd231pd 0xa10(%rdi){1to8},%zmm0,%zmm27
    5e78:	0a 00 00 
    5e7b:	62 62 fd 58 b8 a7 f8 	vfmadd231pd 0x9f8(%rdi){1to8},%zmm0,%zmm28
    5e82:	09 00 00 
    5e85:	62 62 fd 58 b8 af 60 	vfmadd231pd 0xa60(%rdi){1to8},%zmm0,%zmm29
    5e8c:	0a 00 00 
    5e8f:	62 62 fd 58 b8 b7 c8 	vfmadd231pd 0xcc8(%rdi){1to8},%zmm0,%zmm30
    5e96:	0c 00 00 
    5e99:	62 62 fd 58 bc bf 88 	vfnmadd231pd 0xc88(%rdi){1to8},%zmm0,%zmm31
    5ea0:	0c 00 00 
    5ea3:	62 f1 fd 48 10 86 00 	vmovupd 0x1944c00(%rsi),%zmm0
    5eaa:	4c 94 01 
    5ead:	62 62 fd 58 bc 87 30 	vfnmadd231pd 0xa30(%rdi){1to8},%zmm0,%zmm24
    5eb4:	0a 00 00 
    5eb7:	62 62 fd 58 b8 8f 18 	vfmadd231pd 0xa18(%rdi){1to8},%zmm0,%zmm25
    5ebe:	0a 00 00 
    5ec1:	62 62 fd 58 bc 97 00 	vfnmadd231pd 0xa00(%rdi){1to8},%zmm0,%zmm26
    5ec8:	0a 00 00 
    5ecb:	62 62 fd 58 b8 9f 88 	vfmadd231pd 0xa88(%rdi){1to8},%zmm0,%zmm27
    5ed2:	0a 00 00 
    5ed5:	62 62 fd 58 bc a7 98 	vfnmadd231pd 0xa98(%rdi){1to8},%zmm0,%zmm28
    5edc:	0a 00 00 
    5edf:	62 62 fd 58 b8 af 78 	vfmadd231pd 0xa78(%rdi){1to8},%zmm0,%zmm29
    5ee6:	0a 00 00 
    5ee9:	62 62 fd 58 b8 b7 d0 	vfmadd231pd 0xcd0(%rdi){1to8},%zmm0,%zmm30
    5ef0:	0c 00 00 
    5ef3:	62 62 fd 58 bc bf b8 	vfnmadd231pd 0xcb8(%rdi){1to8},%zmm0,%zmm31
    5efa:	0c 00 00 
    5efd:	62 f1 fd 48 10 86 00 	vmovupd 0x19a2800(%rsi),%zmm0
    5f04:	28 9a 01 
    5f07:	62 62 fd 58 b8 87 38 	vfmadd231pd 0xa38(%rdi){1to8},%zmm0,%zmm24
    5f0e:	0a 00 00 
    5f11:	62 62 fd 58 bc 8f 08 	vfnmadd231pd 0xa08(%rdi){1to8},%zmm0,%zmm25
    5f18:	0a 00 00 
    5f1b:	62 62 fd 58 bc 97 58 	vfnmadd231pd 0xa58(%rdi){1to8},%zmm0,%zmm26
    5f22:	0a 00 00 
    5f25:	62 62 fd 58 bc 9f a0 	vfnmadd231pd 0xaa0(%rdi){1to8},%zmm0,%zmm27
    5f2c:	0a 00 00 
    5f2f:	62 62 fd 58 bc a7 90 	vfnmadd231pd 0xa90(%rdi){1to8},%zmm0,%zmm28
    5f36:	0a 00 00 
    5f39:	62 62 fd 58 b8 af 68 	vfmadd231pd 0xa68(%rdi){1to8},%zmm0,%zmm29
    5f40:	0a 00 00 
    5f43:	62 62 fd 58 b8 b7 d8 	vfmadd231pd 0xcd8(%rdi){1to8},%zmm0,%zmm30
    5f4a:	0c 00 00 
    5f4d:	62 62 fd 58 bc bf a8 	vfnmadd231pd 0xca8(%rdi){1to8},%zmm0,%zmm31
    5f54:	0c 00 00 
    5f57:	62 f1 fd 48 10 86 00 	vmovupd 0x1a00400(%rsi),%zmm0
    5f5e:	04 a0 01 
    5f61:	62 62 fd 58 b8 87 40 	vfmadd231pd 0xa40(%rdi){1to8},%zmm0,%zmm24
    5f68:	0a 00 00 
    5f6b:	62 62 fd 58 bc 8f 48 	vfnmadd231pd 0xa48(%rdi){1to8},%zmm0,%zmm25
    5f72:	0a 00 00 
    5f75:	62 62 fd 58 bc 97 80 	vfnmadd231pd 0xa80(%rdi){1to8},%zmm0,%zmm26
    5f7c:	0a 00 00 
    5f7f:	62 62 fd 58 b8 9f 20 	vfmadd231pd 0xa20(%rdi){1to8},%zmm0,%zmm27
    5f86:	0a 00 00 
    5f89:	62 62 fd 58 bc a7 70 	vfnmadd231pd 0xa70(%rdi){1to8},%zmm0,%zmm28
    5f90:	0a 00 00 
    5f93:	62 62 fd 58 bc af f0 	vfnmadd231pd 0x9f0(%rdi){1to8},%zmm0,%zmm29
    5f9a:	09 00 00 
    5f9d:	62 62 fd 58 bc b7 e0 	vfnmadd231pd 0xce0(%rdi){1to8},%zmm0,%zmm30
    5fa4:	0c 00 00 
    5fa7:	62 62 fd 58 b8 bf e8 	vfmadd231pd 0xce8(%rdi){1to8},%zmm0,%zmm31
    5fae:	0c 00 00 
    5fb1:	62 f1 fd 48 10 86 00 	vmovupd 0x1a5e000(%rsi),%zmm0
    5fb8:	e0 a5 01 
    5fbb:	62 62 fd 58 bc 87 48 	vfnmadd231pd 0xa48(%rdi){1to8},%zmm0,%zmm24
    5fc2:	0a 00 00 
    5fc5:	62 62 fd 58 b8 8f 40 	vfmadd231pd 0xa40(%rdi){1to8},%zmm0,%zmm25
    5fcc:	0a 00 00 
    5fcf:	62 62 fd 58 b8 97 20 	vfmadd231pd 0xa20(%rdi){1to8},%zmm0,%zmm26
    5fd6:	0a 00 00 
    5fd9:	62 62 fd 58 bc 9f 80 	vfnmadd231pd 0xa80(%rdi){1to8},%zmm0,%zmm27
    5fe0:	0a 00 00 
    5fe3:	62 62 fd 58 bc a7 f0 	vfnmadd231pd 0x9f0(%rdi){1to8},%zmm0,%zmm28
    5fea:	09 00 00 
    5fed:	62 62 fd 58 bc af 70 	vfnmadd231pd 0xa70(%rdi){1to8},%zmm0,%zmm29
    5ff4:	0a 00 00 
    5ff7:	62 62 fd 58 b8 b7 e8 	vfmadd231pd 0xce8(%rdi){1to8},%zmm0,%zmm30
    5ffe:	0c 00 00 
    6001:	62 62 fd 58 bc bf e0 	vfnmadd231pd 0xce0(%rdi){1to8},%zmm0,%zmm31
    6008:	0c 00 00 
    600b:	62 f1 fd 48 10 86 00 	vmovupd 0x1abbc00(%rsi),%zmm0
    6012:	bc ab 01 
    6015:	62 62 fd 58 bc 87 50 	vfnmadd231pd 0xa50(%rdi){1to8},%zmm0,%zmm24
    601c:	0a 00 00 
    601f:	62 62 fd 58 b8 8f 60 	vfmadd231pd 0xa60(%rdi){1to8},%zmm0,%zmm25
    6026:	0a 00 00 
    6029:	62 62 fd 58 b8 97 f8 	vfmadd231pd 0x9f8(%rdi){1to8},%zmm0,%zmm26
    6030:	09 00 00 
    6033:	62 62 fd 58 bc 9f e8 	vfnmadd231pd 0x9e8(%rdi){1to8},%zmm0,%zmm27
    603a:	09 00 00 
    603d:	62 62 fd 58 b8 a7 28 	vfmadd231pd 0xa28(%rdi){1to8},%zmm0,%zmm28
    6044:	0a 00 00 
    6047:	62 62 fd 58 b8 af 10 	vfmadd231pd 0xa10(%rdi){1to8},%zmm0,%zmm29
    604e:	0a 00 00 
    6051:	62 62 fd 58 bc b7 f0 	vfnmadd231pd 0xcf0(%rdi){1to8},%zmm0,%zmm30
    6058:	0c 00 00 
    605b:	62 62 fd 58 b8 bf 00 	vfmadd231pd 0xd00(%rdi){1to8},%zmm0,%zmm31
    6062:	0d 00 00 
    6065:	62 f1 fd 48 10 86 00 	vmovupd 0x1b19800(%rsi),%zmm0
    606c:	98 b1 01 
    606f:	62 62 fd 58 bc 87 58 	vfnmadd231pd 0xa58(%rdi){1to8},%zmm0,%zmm24
    6076:	0a 00 00 
    6079:	62 62 fd 58 b8 8f 68 	vfmadd231pd 0xa68(%rdi){1to8},%zmm0,%zmm25
    6080:	0a 00 00 
    6083:	62 62 fd 58 bc 97 90 	vfnmadd231pd 0xa90(%rdi){1to8},%zmm0,%zmm26
    608a:	0a 00 00 
    608d:	62 62 fd 58 bc 9f 08 	vfnmadd231pd 0xa08(%rdi){1to8},%zmm0,%zmm27
    6094:	0a 00 00 
    6097:	62 62 fd 58 b8 a7 38 	vfmadd231pd 0xa38(%rdi){1to8},%zmm0,%zmm28
    609e:	0a 00 00 
    60a1:	62 62 fd 58 bc af a0 	vfnmadd231pd 0xaa0(%rdi){1to8},%zmm0,%zmm29
    60a8:	0a 00 00 
    60ab:	62 62 fd 58 bc b7 f8 	vfnmadd231pd 0xcf8(%rdi){1to8},%zmm0,%zmm30
    60b2:	0c 00 00 
    60b5:	62 62 fd 58 b8 bf 08 	vfmadd231pd 0xd08(%rdi){1to8},%zmm0,%zmm31
    60bc:	0d 00 00 
    60bf:	62 f1 fd 48 10 86 00 	vmovupd 0x1b77400(%rsi),%zmm0
    60c6:	74 b7 01 
    60c9:	62 62 fd 58 b8 87 60 	vfmadd231pd 0xa60(%rdi){1to8},%zmm0,%zmm24
    60d0:	0a 00 00 
    60d3:	62 62 fd 58 bc 8f 50 	vfnmadd231pd 0xa50(%rdi){1to8},%zmm0,%zmm25
    60da:	0a 00 00 
    60dd:	62 62 fd 58 bc 97 e8 	vfnmadd231pd 0x9e8(%rdi){1to8},%zmm0,%zmm26
    60e4:	09 00 00 
    60e7:	62 62 fd 58 b8 9f f8 	vfmadd231pd 0x9f8(%rdi){1to8},%zmm0,%zmm27
    60ee:	09 00 00 
    60f1:	62 62 fd 58 b8 a7 10 	vfmadd231pd 0xa10(%rdi){1to8},%zmm0,%zmm28
    60f8:	0a 00 00 
    60fb:	62 62 fd 58 b8 af 28 	vfmadd231pd 0xa28(%rdi){1to8},%zmm0,%zmm29
    6102:	0a 00 00 
    6105:	62 62 fd 58 b8 b7 00 	vfmadd231pd 0xd00(%rdi){1to8},%zmm0,%zmm30
    610c:	0d 00 00 
    610f:	62 62 fd 58 bc bf f0 	vfnmadd231pd 0xcf0(%rdi){1to8},%zmm0,%zmm31
    6116:	0c 00 00 
    6119:	62 f1 fd 48 10 86 00 	vmovupd 0x1bd5000(%rsi),%zmm0
    6120:	50 bd 01 
    6123:	62 62 fd 58 b8 87 68 	vfmadd231pd 0xa68(%rdi){1to8},%zmm0,%zmm24
    612a:	0a 00 00 
    612d:	62 62 fd 58 bc 8f 58 	vfnmadd231pd 0xa58(%rdi){1to8},%zmm0,%zmm25
    6134:	0a 00 00 
    6137:	62 62 fd 58 bc 97 08 	vfnmadd231pd 0xa08(%rdi){1to8},%zmm0,%zmm26
    613e:	0a 00 00 
    6141:	62 62 fd 58 bc 9f 90 	vfnmadd231pd 0xa90(%rdi){1to8},%zmm0,%zmm27
    6148:	0a 00 00 
    614b:	62 62 fd 58 bc a7 a0 	vfnmadd231pd 0xaa0(%rdi){1to8},%zmm0,%zmm28
    6152:	0a 00 00 
    6155:	62 62 fd 58 b8 af 38 	vfmadd231pd 0xa38(%rdi){1to8},%zmm0,%zmm29
    615c:	0a 00 00 
    615f:	62 62 fd 58 b8 b7 08 	vfmadd231pd 0xd08(%rdi){1to8},%zmm0,%zmm30
    6166:	0d 00 00 
    6169:	62 62 fd 58 bc bf f8 	vfnmadd231pd 0xcf8(%rdi){1to8},%zmm0,%zmm31
    6170:	0c 00 00 
    6173:	62 f1 fd 48 10 86 00 	vmovupd 0x1c32c00(%rsi),%zmm0
    617a:	2c c3 01 
    617d:	62 62 fd 58 bc 87 70 	vfnmadd231pd 0xa70(%rdi){1to8},%zmm0,%zmm24
    6184:	0a 00 00 
    6187:	62 62 fd 58 b8 8f 20 	vfmadd231pd 0xa20(%rdi){1to8},%zmm0,%zmm25
    618e:	0a 00 00 
    6191:	62 62 fd 58 b8 97 40 	vfmadd231pd 0xa40(%rdi){1to8},%zmm0,%zmm26
    6198:	0a 00 00 
    619b:	62 62 fd 58 bc 9f f0 	vfnmadd231pd 0x9f0(%rdi){1to8},%zmm0,%zmm27
    61a2:	09 00 00 
    61a5:	62 62 fd 58 bc a7 80 	vfnmadd231pd 0xa80(%rdi){1to8},%zmm0,%zmm28
    61ac:	0a 00 00 
    61af:	62 62 fd 58 bc af 48 	vfnmadd231pd 0xa48(%rdi){1to8},%zmm0,%zmm29
    61b6:	0a 00 00 
    61b9:	62 62 fd 58 bc b7 10 	vfnmadd231pd 0xd10(%rdi){1to8},%zmm0,%zmm30
    61c0:	0d 00 00 
    61c3:	62 62 fd 58 b8 bf c0 	vfmadd231pd 0xcc0(%rdi){1to8},%zmm0,%zmm31
    61ca:	0c 00 00 
    61cd:	62 f1 fd 48 10 86 00 	vmovupd 0x1c90800(%rsi),%zmm0
    61d4:	08 c9 01 
    61d7:	62 62 fd 58 b8 87 78 	vfmadd231pd 0xa78(%rdi){1to8},%zmm0,%zmm24
    61de:	0a 00 00 
    61e1:	62 62 fd 58 bc 8f 00 	vfnmadd231pd 0xa00(%rdi){1to8},%zmm0,%zmm25
    61e8:	0a 00 00 
    61eb:	62 62 fd 58 b8 97 18 	vfmadd231pd 0xa18(%rdi){1to8},%zmm0,%zmm26
    61f2:	0a 00 00 
    61f5:	62 62 fd 58 bc 9f 98 	vfnmadd231pd 0xa98(%rdi){1to8},%zmm0,%zmm27
    61fc:	0a 00 00 
    61ff:	62 62 fd 58 b8 a7 88 	vfmadd231pd 0xa88(%rdi){1to8},%zmm0,%zmm28
    6206:	0a 00 00 
    6209:	62 62 fd 58 bc af 30 	vfnmadd231pd 0xa30(%rdi){1to8},%zmm0,%zmm29
    6210:	0a 00 00 
    6213:	62 62 fd 58 b8 b7 18 	vfmadd231pd 0xd18(%rdi){1to8},%zmm0,%zmm30
    621a:	0d 00 00 
    621d:	62 62 fd 58 b8 bf a0 	vfmadd231pd 0xca0(%rdi){1to8},%zmm0,%zmm31
    6224:	0c 00 00 
    6227:	62 f1 fd 48 10 86 00 	vmovupd 0x1cee400(%rsi),%zmm0
    622e:	e4 ce 01 
    6231:	62 62 fd 58 bc 87 80 	vfnmadd231pd 0xa80(%rdi){1to8},%zmm0,%zmm24
    6238:	0a 00 00 
    623b:	62 62 fd 58 bc 8f f0 	vfnmadd231pd 0x9f0(%rdi){1to8},%zmm0,%zmm25
    6242:	09 00 00 
    6245:	62 62 fd 58 bc 97 70 	vfnmadd231pd 0xa70(%rdi){1to8},%zmm0,%zmm26
    624c:	0a 00 00 
    624f:	62 62 fd 58 bc 9f 48 	vfnmadd231pd 0xa48(%rdi){1to8},%zmm0,%zmm27
    6256:	0a 00 00 
    6259:	62 62 fd 58 b8 a7 40 	vfmadd231pd 0xa40(%rdi){1to8},%zmm0,%zmm28
    6260:	0a 00 00 
    6263:	62 62 fd 58 b8 af 20 	vfmadd231pd 0xa20(%rdi){1to8},%zmm0,%zmm29
    626a:	0a 00 00 
    626d:	62 62 fd 58 b8 b7 20 	vfmadd231pd 0xd20(%rdi){1to8},%zmm0,%zmm30
    6274:	0d 00 00 
    6277:	62 62 fd 58 bc bf 90 	vfnmadd231pd 0xc90(%rdi){1to8},%zmm0,%zmm31
    627e:	0c 00 00 
    6281:	62 f1 fd 48 10 86 00 	vmovupd 0x1d4c000(%rsi),%zmm0
    6288:	c0 d4 01 
    628b:	62 62 fd 58 b8 87 88 	vfmadd231pd 0xa88(%rdi){1to8},%zmm0,%zmm24
    6292:	0a 00 00 
    6295:	62 62 fd 58 bc 8f 98 	vfnmadd231pd 0xa98(%rdi){1to8},%zmm0,%zmm25
    629c:	0a 00 00 
    629f:	62 62 fd 58 b8 97 78 	vfmadd231pd 0xa78(%rdi){1to8},%zmm0,%zmm26
    62a6:	0a 00 00 
    62a9:	62 62 fd 58 bc 9f 30 	vfnmadd231pd 0xa30(%rdi){1to8},%zmm0,%zmm27
    62b0:	0a 00 00 
    62b3:	62 62 fd 58 b8 a7 18 	vfmadd231pd 0xa18(%rdi){1to8},%zmm0,%zmm28
    62ba:	0a 00 00 
    62bd:	62 62 fd 58 bc af 00 	vfnmadd231pd 0xa00(%rdi){1to8},%zmm0,%zmm29
    62c4:	0a 00 00 
    62c7:	62 62 fd 58 b8 b7 28 	vfmadd231pd 0xd28(%rdi){1to8},%zmm0,%zmm30
    62ce:	0d 00 00 
    62d1:	62 62 fd 58 bc bf 38 	vfnmadd231pd 0xd38(%rdi){1to8},%zmm0,%zmm31
    62d8:	0d 00 00 
    62db:	62 f1 fd 48 10 86 00 	vmovupd 0x1da9c00(%rsi),%zmm0
    62e2:	9c da 01 
    62e5:	62 62 fd 58 bc 87 90 	vfnmadd231pd 0xa90(%rdi){1to8},%zmm0,%zmm24
    62ec:	0a 00 00 
    62ef:	62 62 fd 58 bc 8f a0 	vfnmadd231pd 0xaa0(%rdi){1to8},%zmm0,%zmm25
    62f6:	0a 00 00 
    62f9:	62 62 fd 58 b8 97 38 	vfmadd231pd 0xa38(%rdi){1to8},%zmm0,%zmm26
    6300:	0a 00 00 
    6303:	62 62 fd 58 b8 9f 68 	vfmadd231pd 0xa68(%rdi){1to8},%zmm0,%zmm27
    630a:	0a 00 00 
    630d:	62 62 fd 58 bc a7 58 	vfnmadd231pd 0xa58(%rdi){1to8},%zmm0,%zmm28
    6314:	0a 00 00 
    6317:	62 62 fd 58 bc af 08 	vfnmadd231pd 0xa08(%rdi){1to8},%zmm0,%zmm29
    631e:	0a 00 00 
    6321:	62 62 fd 58 b8 b7 30 	vfmadd231pd 0xd30(%rdi){1to8},%zmm0,%zmm30
    6328:	0d 00 00 
    632b:	62 62 fd 58 bc bf 40 	vfnmadd231pd 0xd40(%rdi){1to8},%zmm0,%zmm31
    6332:	0d 00 00 
    6335:	62 f1 fd 48 10 86 00 	vmovupd 0x1e07800(%rsi),%zmm0
    633c:	78 e0 01 
    633f:	62 62 fd 58 bc 87 98 	vfnmadd231pd 0xa98(%rdi){1to8},%zmm0,%zmm24
    6346:	0a 00 00 
    6349:	62 62 fd 58 b8 8f 88 	vfmadd231pd 0xa88(%rdi){1to8},%zmm0,%zmm25
    6350:	0a 00 00 
    6353:	62 62 fd 58 bc 97 30 	vfnmadd231pd 0xa30(%rdi){1to8},%zmm0,%zmm26
    635a:	0a 00 00 
    635d:	62 62 fd 58 b8 9f 78 	vfmadd231pd 0xa78(%rdi){1to8},%zmm0,%zmm27
    6364:	0a 00 00 
    6367:	62 62 fd 58 bc a7 00 	vfnmadd231pd 0xa00(%rdi){1to8},%zmm0,%zmm28
    636e:	0a 00 00 
    6371:	62 62 fd 58 b8 af 18 	vfmadd231pd 0xa18(%rdi){1to8},%zmm0,%zmm29
    6378:	0a 00 00 
    637b:	62 62 fd 58 bc b7 38 	vfnmadd231pd 0xd38(%rdi){1to8},%zmm0,%zmm30
    6382:	0d 00 00 
    6385:	62 62 fd 58 b8 bf 28 	vfmadd231pd 0xd28(%rdi){1to8},%zmm0,%zmm31
    638c:	0d 00 00 
    638f:	62 f1 fd 48 10 86 00 	vmovupd 0x1e65400(%rsi),%zmm0
    6396:	54 e6 01 
    6399:	62 62 fd 58 bc 87 a0 	vfnmadd231pd 0xaa0(%rdi){1to8},%zmm0,%zmm24
    63a0:	0a 00 00 
    63a3:	62 62 fd 58 bc 8f 90 	vfnmadd231pd 0xa90(%rdi){1to8},%zmm0,%zmm25
    63aa:	0a 00 00 
    63ad:	62 62 fd 58 b8 97 68 	vfmadd231pd 0xa68(%rdi){1to8},%zmm0,%zmm26
    63b4:	0a 00 00 
    63b7:	62 62 fd 58 b8 9f 38 	vfmadd231pd 0xa38(%rdi){1to8},%zmm0,%zmm27
    63be:	0a 00 00 
    63c1:	62 62 fd 58 bc a7 08 	vfnmadd231pd 0xa08(%rdi){1to8},%zmm0,%zmm28
    63c8:	0a 00 00 
    63cb:	62 62 fd 58 bc af 58 	vfnmadd231pd 0xa58(%rdi){1to8},%zmm0,%zmm29
    63d2:	0a 00 00 
    63d5:	62 62 fd 58 bc b7 40 	vfnmadd231pd 0xd40(%rdi){1to8},%zmm0,%zmm30
    63dc:	0d 00 00 
    63df:	62 62 fd 58 b8 bf 30 	vfmadd231pd 0xd30(%rdi){1to8},%zmm0,%zmm31
    63e6:	0d 00 00 
    63e9:	62 61 fd 48 2b 82 00 	vmovntpd %zmm24,0x5dc000(%rdx)
    63f0:	c0 5d 00 
    63f3:	62 61 fd 48 2b 8a 00 	vmovntpd %zmm25,0x639c00(%rdx)
    63fa:	9c 63 00 
    63fd:	62 61 fd 48 2b 92 00 	vmovntpd %zmm26,0x697800(%rdx)
    6404:	78 69 00 
    6407:	62 61 fd 48 2b 9a 00 	vmovntpd %zmm27,0x6f5400(%rdx)
    640e:	54 6f 00 
    6411:	62 61 fd 48 2b a2 00 	vmovntpd %zmm28,0x753000(%rdx)
    6418:	30 75 00 
    641b:	62 61 fd 48 2b aa 00 	vmovntpd %zmm29,0x7b0c00(%rdx)
    6422:	0c 7b 00 
    6425:	62 61 fd 48 2b b2 00 	vmovntpd %zmm30,0x80e800(%rdx)
    642c:	e8 80 00 
    642f:	62 61 fd 48 2b ba 00 	vmovntpd %zmm31,0x86c400(%rdx)
    6436:	c4 86 00 
    6439:	62 01 3d 40 ef c0    	vpxord %zmm24,%zmm24,%zmm24
    643f:	62 01 35 40 ef c9    	vpxord %zmm25,%zmm25,%zmm25
    6445:	62 01 2d 40 ef d2    	vpxord %zmm26,%zmm26,%zmm26
    644b:	62 01 25 40 ef db    	vpxord %zmm27,%zmm27,%zmm27
    6451:	62 01 1d 40 ef e4    	vpxord %zmm28,%zmm28,%zmm28
    6457:	62 01 15 40 ef ed    	vpxord %zmm29,%zmm29,%zmm29
    645d:	62 01 0d 40 ef f6    	vpxord %zmm30,%zmm30,%zmm30
    6463:	62 01 05 40 ef ff    	vpxord %zmm31,%zmm31,%zmm31
    6469:	62 f1 fd 48 10 06    	vmovupd (%rsi),%zmm0
    646f:	62 62 fd 58 bc 87 a8 	vfnmadd231pd 0xaa8(%rdi){1to8},%zmm0,%zmm24
    6476:	0a 00 00 
    6479:	62 62 fd 58 bc 8f a8 	vfnmadd231pd 0xaa8(%rdi){1to8},%zmm0,%zmm25
    6480:	0a 00 00 
    6483:	62 62 fd 58 bc 97 a8 	vfnmadd231pd 0xaa8(%rdi){1to8},%zmm0,%zmm26
    648a:	0a 00 00 
    648d:	62 62 fd 58 bc 9f a8 	vfnmadd231pd 0xaa8(%rdi){1to8},%zmm0,%zmm27
    6494:	0a 00 00 
    6497:	62 62 fd 58 bc 67 01 	vfnmadd231pd 0x8(%rdi){1to8},%zmm0,%zmm28
    649e:	62 62 fd 58 b8 6f 19 	vfmadd231pd 0xc8(%rdi){1to8},%zmm0,%zmm29
    64a5:	62 62 fd 58 b8 77 18 	vfmadd231pd 0xc0(%rdi){1to8},%zmm0,%zmm30
    64ac:	62 62 fd 58 b8 7f 18 	vfmadd231pd 0xc0(%rdi){1to8},%zmm0,%zmm31
    64b3:	62 f1 fd 48 10 86 00 	vmovupd 0x5dc00(%rsi),%zmm0
    64ba:	dc 05 00 
    64bd:	62 62 fd 58 bc 87 b8 	vfnmadd231pd 0xab8(%rdi){1to8},%zmm0,%zmm24
    64c4:	0a 00 00 
    64c7:	62 62 fd 58 bc 8f b0 	vfnmadd231pd 0xab0(%rdi){1to8},%zmm0,%zmm25
    64ce:	0a 00 00 
    64d1:	62 62 fd 58 b8 97 c0 	vfmadd231pd 0xac0(%rdi){1to8},%zmm0,%zmm26
    64d8:	0a 00 00 
    64db:	62 62 fd 58 bc 9f b8 	vfnmadd231pd 0xab8(%rdi){1to8},%zmm0,%zmm27
    64e2:	0a 00 00 
    64e5:	62 62 fd 58 bc 67 01 	vfnmadd231pd 0x8(%rdi){1to8},%zmm0,%zmm28
    64ec:	62 62 fd 58 b8 6f 18 	vfmadd231pd 0xc0(%rdi){1to8},%zmm0,%zmm29
    64f3:	62 62 fd 58 b8 77 19 	vfmadd231pd 0xc8(%rdi){1to8},%zmm0,%zmm30
    64fa:	62 62 fd 58 b8 7f 18 	vfmadd231pd 0xc0(%rdi){1to8},%zmm0,%zmm31
    6501:	62 f1 fd 48 10 86 00 	vmovupd 0xbb800(%rsi),%zmm0
    6508:	b8 0b 00 
    650b:	62 62 fd 58 b8 87 c0 	vfmadd231pd 0xac0(%rdi){1to8},%zmm0,%zmm24
    6512:	0a 00 00 
    6515:	62 62 fd 58 b8 8f c0 	vfmadd231pd 0xac0(%rdi){1to8},%zmm0,%zmm25
    651c:	0a 00 00 
    651f:	62 62 fd 58 bc 97 b0 	vfnmadd231pd 0xab0(%rdi){1to8},%zmm0,%zmm26
    6526:	0a 00 00 
    6529:	62 62 fd 58 bc 9f b0 	vfnmadd231pd 0xab0(%rdi){1to8},%zmm0,%zmm27
    6530:	0a 00 00 
    6533:	62 62 fd 58 bc 27    	vfnmadd231pd (%rdi){1to8},%zmm0,%zmm28
    6539:	62 62 fd 58 bc 6f 17 	vfnmadd231pd 0xb8(%rdi){1to8},%zmm0,%zmm29
    6540:	62 62 fd 58 bc 77 17 	vfnmadd231pd 0xb8(%rdi){1to8},%zmm0,%zmm30
    6547:	62 62 fd 58 bc 7f 17 	vfnmadd231pd 0xb8(%rdi){1to8},%zmm0,%zmm31
    654e:	62 f1 fd 48 10 86 00 	vmovupd 0x119400(%rsi),%zmm0
    6555:	94 11 00 
    6558:	62 62 fd 58 bc 87 b0 	vfnmadd231pd 0xab0(%rdi){1to8},%zmm0,%zmm24
    655f:	0a 00 00 
    6562:	62 62 fd 58 bc 8f b8 	vfnmadd231pd 0xab8(%rdi){1to8},%zmm0,%zmm25
    6569:	0a 00 00 
    656c:	62 62 fd 58 bc 97 b8 	vfnmadd231pd 0xab8(%rdi){1to8},%zmm0,%zmm26
    6573:	0a 00 00 
    6576:	62 62 fd 58 b8 9f c0 	vfmadd231pd 0xac0(%rdi){1to8},%zmm0,%zmm27
    657d:	0a 00 00 
    6580:	62 62 fd 58 bc 67 01 	vfnmadd231pd 0x8(%rdi){1to8},%zmm0,%zmm28
    6587:	62 62 fd 58 b8 6f 18 	vfmadd231pd 0xc0(%rdi){1to8},%zmm0,%zmm29
    658e:	62 62 fd 58 b8 77 18 	vfmadd231pd 0xc0(%rdi){1to8},%zmm0,%zmm30
    6595:	62 62 fd 58 b8 7f 19 	vfmadd231pd 0xc8(%rdi){1to8},%zmm0,%zmm31
    659c:	62 f1 fd 48 10 86 00 	vmovupd 0x177000(%rsi),%zmm0
    65a3:	70 17 00 
    65a6:	62 62 fd 58 b8 87 c8 	vfmadd231pd 0xac8(%rdi){1to8},%zmm0,%zmm24
    65ad:	0a 00 00 
    65b0:	62 62 fd 58 b8 8f c8 	vfmadd231pd 0xac8(%rdi){1to8},%zmm0,%zmm25
    65b7:	0a 00 00 
    65ba:	62 62 fd 58 b8 97 c8 	vfmadd231pd 0xac8(%rdi){1to8},%zmm0,%zmm26
    65c1:	0a 00 00 
    65c4:	62 62 fd 58 b8 9f c8 	vfmadd231pd 0xac8(%rdi){1to8},%zmm0,%zmm27
    65cb:	0a 00 00 
    65ce:	62 62 fd 58 b8 67 03 	vfmadd231pd 0x18(%rdi){1to8},%zmm0,%zmm28
    65d5:	62 62 fd 58 b8 6f 1c 	vfmadd231pd 0xe0(%rdi){1to8},%zmm0,%zmm29
    65dc:	62 62 fd 58 b8 77 1b 	vfmadd231pd 0xd8(%rdi){1to8},%zmm0,%zmm30
    65e3:	62 62 fd 58 b8 7f 1b 	vfmadd231pd 0xd8(%rdi){1to8},%zmm0,%zmm31
    65ea:	62 f1 fd 48 10 86 00 	vmovupd 0x1d4c00(%rsi),%zmm0
    65f1:	4c 1d 00 
    65f4:	62 62 fd 58 b8 87 d8 	vfmadd231pd 0xad8(%rdi){1to8},%zmm0,%zmm24
    65fb:	0a 00 00 
    65fe:	62 62 fd 58 b8 8f d0 	vfmadd231pd 0xad0(%rdi){1to8},%zmm0,%zmm25
    6605:	0a 00 00 
    6608:	62 62 fd 58 b8 97 e0 	vfmadd231pd 0xae0(%rdi){1to8},%zmm0,%zmm26
    660f:	0a 00 00 
    6612:	62 62 fd 58 b8 9f d8 	vfmadd231pd 0xad8(%rdi){1to8},%zmm0,%zmm27
    6619:	0a 00 00 
    661c:	62 62 fd 58 b8 67 03 	vfmadd231pd 0x18(%rdi){1to8},%zmm0,%zmm28
    6623:	62 62 fd 58 b8 6f 1b 	vfmadd231pd 0xd8(%rdi){1to8},%zmm0,%zmm29
    662a:	62 62 fd 58 b8 77 1c 	vfmadd231pd 0xe0(%rdi){1to8},%zmm0,%zmm30
    6631:	62 62 fd 58 b8 7f 1b 	vfmadd231pd 0xd8(%rdi){1to8},%zmm0,%zmm31
    6638:	62 f1 fd 48 10 86 00 	vmovupd 0x232800(%rsi),%zmm0
    663f:	28 23 00 
    6642:	62 62 fd 58 b8 87 e0 	vfmadd231pd 0xae0(%rdi){1to8},%zmm0,%zmm24
    6649:	0a 00 00 
    664c:	62 62 fd 58 b8 8f e0 	vfmadd231pd 0xae0(%rdi){1to8},%zmm0,%zmm25
    6653:	0a 00 00 
    6656:	62 62 fd 58 b8 97 d0 	vfmadd231pd 0xad0(%rdi){1to8},%zmm0,%zmm26
    665d:	0a 00 00 
    6660:	62 62 fd 58 b8 9f d0 	vfmadd231pd 0xad0(%rdi){1to8},%zmm0,%zmm27
    6667:	0a 00 00 
    666a:	62 62 fd 58 b8 67 02 	vfmadd231pd 0x10(%rdi){1to8},%zmm0,%zmm28
    6671:	62 62 fd 58 b8 6f 1a 	vfmadd231pd 0xd0(%rdi){1to8},%zmm0,%zmm29
    6678:	62 62 fd 58 b8 77 1a 	vfmadd231pd 0xd0(%rdi){1to8},%zmm0,%zmm30
    667f:	62 62 fd 58 b8 7f 1a 	vfmadd231pd 0xd0(%rdi){1to8},%zmm0,%zmm31
    6686:	62 f1 fd 48 10 86 00 	vmovupd 0x290400(%rsi),%zmm0
    668d:	04 29 00 
    6690:	62 62 fd 58 b8 87 d0 	vfmadd231pd 0xad0(%rdi){1to8},%zmm0,%zmm24
    6697:	0a 00 00 
    669a:	62 62 fd 58 b8 8f d8 	vfmadd231pd 0xad8(%rdi){1to8},%zmm0,%zmm25
    66a1:	0a 00 00 
    66a4:	62 62 fd 58 b8 97 d8 	vfmadd231pd 0xad8(%rdi){1to8},%zmm0,%zmm26
    66ab:	0a 00 00 
    66ae:	62 62 fd 58 b8 9f e0 	vfmadd231pd 0xae0(%rdi){1to8},%zmm0,%zmm27
    66b5:	0a 00 00 
    66b8:	62 62 fd 58 b8 67 03 	vfmadd231pd 0x18(%rdi){1to8},%zmm0,%zmm28
    66bf:	62 62 fd 58 b8 6f 1b 	vfmadd231pd 0xd8(%rdi){1to8},%zmm0,%zmm29
    66c6:	62 62 fd 58 b8 77 1b 	vfmadd231pd 0xd8(%rdi){1to8},%zmm0,%zmm30
    66cd:	62 62 fd 58 b8 7f 1c 	vfmadd231pd 0xe0(%rdi){1to8},%zmm0,%zmm31
    66d4:	62 f1 fd 48 10 86 00 	vmovupd 0x2ee000(%rsi),%zmm0
    66db:	e0 2e 00 
    66de:	62 62 fd 58 b8 87 e8 	vfmadd231pd 0xae8(%rdi){1to8},%zmm0,%zmm24
    66e5:	0a 00 00 
    66e8:	62 62 fd 58 b8 8f e8 	vfmadd231pd 0xae8(%rdi){1to8},%zmm0,%zmm25
    66ef:	0a 00 00 
    66f2:	62 62 fd 58 b8 97 e8 	vfmadd231pd 0xae8(%rdi){1to8},%zmm0,%zmm26
    66f9:	0a 00 00 
    66fc:	62 62 fd 58 b8 9f e8 	vfmadd231pd 0xae8(%rdi){1to8},%zmm0,%zmm27
    6703:	0a 00 00 
    6706:	62 62 fd 58 b8 67 05 	vfmadd231pd 0x28(%rdi){1to8},%zmm0,%zmm28
    670d:	62 62 fd 58 bc 6f 1f 	vfnmadd231pd 0xf8(%rdi){1to8},%zmm0,%zmm29
    6714:	62 62 fd 58 b8 77 1e 	vfmadd231pd 0xf0(%rdi){1to8},%zmm0,%zmm30
    671b:	62 62 fd 58 b8 7f 1e 	vfmadd231pd 0xf0(%rdi){1to8},%zmm0,%zmm31
    6722:	62 f1 fd 48 10 86 00 	vmovupd 0x34bc00(%rsi),%zmm0
    6729:	bc 34 00 
    672c:	62 62 fd 58 bc 87 f8 	vfnmadd231pd 0xaf8(%rdi){1to8},%zmm0,%zmm24
    6733:	0a 00 00 
    6736:	62 62 fd 58 bc 8f f0 	vfnmadd231pd 0xaf0(%rdi){1to8},%zmm0,%zmm25
    673d:	0a 00 00 
    6740:	62 62 fd 58 b8 97 00 	vfmadd231pd 0xb00(%rdi){1to8},%zmm0,%zmm26
    6747:	0b 00 00 
    674a:	62 62 fd 58 bc 9f f8 	vfnmadd231pd 0xaf8(%rdi){1to8},%zmm0,%zmm27
    6751:	0a 00 00 
    6754:	62 62 fd 58 b8 67 05 	vfmadd231pd 0x28(%rdi){1to8},%zmm0,%zmm28
    675b:	62 62 fd 58 b8 6f 1e 	vfmadd231pd 0xf0(%rdi){1to8},%zmm0,%zmm29
    6762:	62 62 fd 58 bc 77 1f 	vfnmadd231pd 0xf8(%rdi){1to8},%zmm0,%zmm30
    6769:	62 62 fd 58 b8 7f 1e 	vfmadd231pd 0xf0(%rdi){1to8},%zmm0,%zmm31
    6770:	62 f1 fd 48 10 86 00 	vmovupd 0x3a9800(%rsi),%zmm0
    6777:	98 3a 00 
    677a:	62 62 fd 58 b8 87 00 	vfmadd231pd 0xb00(%rdi){1to8},%zmm0,%zmm24
    6781:	0b 00 00 
    6784:	62 62 fd 58 b8 8f 00 	vfmadd231pd 0xb00(%rdi){1to8},%zmm0,%zmm25
    678b:	0b 00 00 
    678e:	62 62 fd 58 bc 97 f0 	vfnmadd231pd 0xaf0(%rdi){1to8},%zmm0,%zmm26
    6795:	0a 00 00 
    6798:	62 62 fd 58 bc 9f f0 	vfnmadd231pd 0xaf0(%rdi){1to8},%zmm0,%zmm27
    679f:	0a 00 00 
    67a2:	62 62 fd 58 b8 67 04 	vfmadd231pd 0x20(%rdi){1to8},%zmm0,%zmm28
    67a9:	62 62 fd 58 bc 6f 1d 	vfnmadd231pd 0xe8(%rdi){1to8},%zmm0,%zmm29
    67b0:	62 62 fd 58 bc 77 1d 	vfnmadd231pd 0xe8(%rdi){1to8},%zmm0,%zmm30
    67b7:	62 62 fd 58 bc 7f 1d 	vfnmadd231pd 0xe8(%rdi){1to8},%zmm0,%zmm31
    67be:	62 f1 fd 48 10 86 00 	vmovupd 0x407400(%rsi),%zmm0
    67c5:	74 40 00 
    67c8:	62 62 fd 58 bc 87 f0 	vfnmadd231pd 0xaf0(%rdi){1to8},%zmm0,%zmm24
    67cf:	0a 00 00 
    67d2:	62 62 fd 58 bc 8f f8 	vfnmadd231pd 0xaf8(%rdi){1to8},%zmm0,%zmm25
    67d9:	0a 00 00 
    67dc:	62 62 fd 58 bc 97 f8 	vfnmadd231pd 0xaf8(%rdi){1to8},%zmm0,%zmm26
    67e3:	0a 00 00 
    67e6:	62 62 fd 58 b8 9f 00 	vfmadd231pd 0xb00(%rdi){1to8},%zmm0,%zmm27
    67ed:	0b 00 00 
    67f0:	62 62 fd 58 b8 67 05 	vfmadd231pd 0x28(%rdi){1to8},%zmm0,%zmm28
    67f7:	62 62 fd 58 b8 6f 1e 	vfmadd231pd 0xf0(%rdi){1to8},%zmm0,%zmm29
    67fe:	62 62 fd 58 b8 77 1e 	vfmadd231pd 0xf0(%rdi){1to8},%zmm0,%zmm30
    6805:	62 62 fd 58 bc 7f 1f 	vfnmadd231pd 0xf8(%rdi){1to8},%zmm0,%zmm31
    680c:	62 f1 fd 48 10 86 00 	vmovupd 0x465000(%rsi),%zmm0
    6813:	50 46 00 
    6816:	62 62 fd 58 bc 87 10 	vfnmadd231pd 0xb10(%rdi){1to8},%zmm0,%zmm24
    681d:	0b 00 00 
    6820:	62 62 fd 58 bc 8f 08 	vfnmadd231pd 0xb08(%rdi){1to8},%zmm0,%zmm25
    6827:	0b 00 00 
    682a:	62 62 fd 58 b8 97 28 	vfmadd231pd 0xb28(%rdi){1to8},%zmm0,%zmm26
    6831:	0b 00 00 
    6834:	62 62 fd 58 bc 9f 10 	vfnmadd231pd 0xb10(%rdi){1to8},%zmm0,%zmm27
    683b:	0b 00 00 
    683e:	62 62 fd 58 b8 67 07 	vfmadd231pd 0x38(%rdi){1to8},%zmm0,%zmm28
    6845:	62 62 fd 58 bc 6f 23 	vfnmadd231pd 0x118(%rdi){1to8},%zmm0,%zmm29
    684c:	62 62 fd 58 bc 77 23 	vfnmadd231pd 0x118(%rdi){1to8},%zmm0,%zmm30
    6853:	62 62 fd 58 b8 7f 22 	vfmadd231pd 0x110(%rdi){1to8},%zmm0,%zmm31
    685a:	62 f1 fd 48 10 86 00 	vmovupd 0x4c2c00(%rsi),%zmm0
    6861:	2c 4c 00 
    6864:	62 62 fd 58 b8 87 28 	vfmadd231pd 0xb28(%rdi){1to8},%zmm0,%zmm24
    686b:	0b 00 00 
    686e:	62 62 fd 58 b8 8f 28 	vfmadd231pd 0xb28(%rdi){1to8},%zmm0,%zmm25
    6875:	0b 00 00 
    6878:	62 62 fd 58 bc 97 08 	vfnmadd231pd 0xb08(%rdi){1to8},%zmm0,%zmm26
    687f:	0b 00 00 
    6882:	62 62 fd 58 bc 9f 08 	vfnmadd231pd 0xb08(%rdi){1to8},%zmm0,%zmm27
    6889:	0b 00 00 
    688c:	62 62 fd 58 bc 67 06 	vfnmadd231pd 0x30(%rdi){1to8},%zmm0,%zmm28
    6893:	62 62 fd 58 bc 6f 21 	vfnmadd231pd 0x108(%rdi){1to8},%zmm0,%zmm29
    689a:	62 62 fd 58 bc 77 20 	vfnmadd231pd 0x100(%rdi){1to8},%zmm0,%zmm30
    68a1:	62 62 fd 58 bc 7f 20 	vfnmadd231pd 0x100(%rdi){1to8},%zmm0,%zmm31
    68a8:	62 f1 fd 48 10 86 00 	vmovupd 0x520800(%rsi),%zmm0
    68af:	08 52 00 
    68b2:	62 62 fd 58 bc 87 30 	vfnmadd231pd 0xb30(%rdi){1to8},%zmm0,%zmm24
    68b9:	0b 00 00 
    68bc:	62 62 fd 58 bc 8f 30 	vfnmadd231pd 0xb30(%rdi){1to8},%zmm0,%zmm25
    68c3:	0b 00 00 
    68c6:	62 62 fd 58 b8 97 20 	vfmadd231pd 0xb20(%rdi){1to8},%zmm0,%zmm26
    68cd:	0b 00 00 
    68d0:	62 62 fd 58 b8 9f 20 	vfmadd231pd 0xb20(%rdi){1to8},%zmm0,%zmm27
    68d7:	0b 00 00 
    68da:	62 62 fd 58 b8 67 07 	vfmadd231pd 0x38(%rdi){1to8},%zmm0,%zmm28
    68e1:	62 62 fd 58 b8 6f 22 	vfmadd231pd 0x110(%rdi){1to8},%zmm0,%zmm29
    68e8:	62 62 fd 58 bc 77 23 	vfnmadd231pd 0x118(%rdi){1to8},%zmm0,%zmm30
    68ef:	62 62 fd 58 bc 7f 23 	vfnmadd231pd 0x118(%rdi){1to8},%zmm0,%zmm31
    68f6:	62 f1 fd 48 10 86 00 	vmovupd 0x57e400(%rsi),%zmm0
    68fd:	e4 57 00 
    6900:	62 62 fd 58 b8 87 18 	vfmadd231pd 0xb18(%rdi){1to8},%zmm0,%zmm24
    6907:	0b 00 00 
    690a:	62 62 fd 58 b8 8f 20 	vfmadd231pd 0xb20(%rdi){1to8},%zmm0,%zmm25
    6911:	0b 00 00 
    6914:	62 62 fd 58 bc 97 30 	vfnmadd231pd 0xb30(%rdi){1to8},%zmm0,%zmm26
    691b:	0b 00 00 
    691e:	62 62 fd 58 b8 9f 18 	vfmadd231pd 0xb18(%rdi){1to8},%zmm0,%zmm27
    6925:	0b 00 00 
    6928:	62 62 fd 58 bc 67 06 	vfnmadd231pd 0x30(%rdi){1to8},%zmm0,%zmm28
    692f:	62 62 fd 58 bc 6f 20 	vfnmadd231pd 0x100(%rdi){1to8},%zmm0,%zmm29
    6936:	62 62 fd 58 bc 77 20 	vfnmadd231pd 0x100(%rdi){1to8},%zmm0,%zmm30
    693d:	62 62 fd 58 bc 7f 21 	vfnmadd231pd 0x108(%rdi){1to8},%zmm0,%zmm31
    6944:	62 f1 fd 48 10 86 00 	vmovupd 0x5dc000(%rsi),%zmm0
    694b:	c0 5d 00 
    694e:	62 62 fd 58 bc 87 08 	vfnmadd231pd 0xb08(%rdi){1to8},%zmm0,%zmm24
    6955:	0b 00 00 
    6958:	62 62 fd 58 bc 8f 10 	vfnmadd231pd 0xb10(%rdi){1to8},%zmm0,%zmm25
    695f:	0b 00 00 
    6962:	62 62 fd 58 bc 97 10 	vfnmadd231pd 0xb10(%rdi){1to8},%zmm0,%zmm26
    6969:	0b 00 00 
    696c:	62 62 fd 58 b8 9f 28 	vfmadd231pd 0xb28(%rdi){1to8},%zmm0,%zmm27
    6973:	0b 00 00 
    6976:	62 62 fd 58 b8 67 07 	vfmadd231pd 0x38(%rdi){1to8},%zmm0,%zmm28
    697d:	62 62 fd 58 bc 6f 23 	vfnmadd231pd 0x118(%rdi){1to8},%zmm0,%zmm29
    6984:	62 62 fd 58 b8 77 22 	vfmadd231pd 0x110(%rdi){1to8},%zmm0,%zmm30
    698b:	62 62 fd 58 bc 7f 23 	vfnmadd231pd 0x118(%rdi){1to8},%zmm0,%zmm31
    6992:	62 f1 fd 48 10 86 00 	vmovupd 0x639c00(%rsi),%zmm0
    6999:	9c 63 00 
    699c:	62 62 fd 58 b8 87 20 	vfmadd231pd 0xb20(%rdi){1to8},%zmm0,%zmm24
    69a3:	0b 00 00 
    69a6:	62 62 fd 58 b8 8f 18 	vfmadd231pd 0xb18(%rdi){1to8},%zmm0,%zmm25
    69ad:	0b 00 00 
    69b0:	62 62 fd 58 b8 97 18 	vfmadd231pd 0xb18(%rdi){1to8},%zmm0,%zmm26
    69b7:	0b 00 00 
    69ba:	62 62 fd 58 bc 9f 30 	vfnmadd231pd 0xb30(%rdi){1to8},%zmm0,%zmm27
    69c1:	0b 00 00 
    69c4:	62 62 fd 58 bc 67 06 	vfnmadd231pd 0x30(%rdi){1to8},%zmm0,%zmm28
    69cb:	62 62 fd 58 bc 6f 20 	vfnmadd231pd 0x100(%rdi){1to8},%zmm0,%zmm29
    69d2:	62 62 fd 58 bc 77 21 	vfnmadd231pd 0x108(%rdi){1to8},%zmm0,%zmm30
    69d9:	62 62 fd 58 bc 7f 20 	vfnmadd231pd 0x100(%rdi){1to8},%zmm0,%zmm31
    69e0:	62 f1 fd 48 10 86 00 	vmovupd 0x697800(%rsi),%zmm0
    69e7:	78 69 00 
    69ea:	62 62 fd 58 bc 87 40 	vfnmadd231pd 0xb40(%rdi){1to8},%zmm0,%zmm24
    69f1:	0b 00 00 
    69f4:	62 62 fd 58 bc 8f 38 	vfnmadd231pd 0xb38(%rdi){1to8},%zmm0,%zmm25
    69fb:	0b 00 00 
    69fe:	62 62 fd 58 bc 97 58 	vfnmadd231pd 0xb58(%rdi){1to8},%zmm0,%zmm26
    6a05:	0b 00 00 
    6a08:	62 62 fd 58 bc 9f 40 	vfnmadd231pd 0xb40(%rdi){1to8},%zmm0,%zmm27
    6a0f:	0b 00 00 
    6a12:	62 62 fd 58 bc 67 09 	vfnmadd231pd 0x48(%rdi){1to8},%zmm0,%zmm28
    6a19:	62 62 fd 58 bc 6f 27 	vfnmadd231pd 0x138(%rdi){1to8},%zmm0,%zmm29
    6a20:	62 62 fd 58 bc 77 27 	vfnmadd231pd 0x138(%rdi){1to8},%zmm0,%zmm30
    6a27:	62 62 fd 58 bc 7f 26 	vfnmadd231pd 0x130(%rdi){1to8},%zmm0,%zmm31
    6a2e:	62 f1 fd 48 10 86 00 	vmovupd 0x6f5400(%rsi),%zmm0
    6a35:	54 6f 00 
    6a38:	62 62 fd 58 bc 87 58 	vfnmadd231pd 0xb58(%rdi){1to8},%zmm0,%zmm24
    6a3f:	0b 00 00 
    6a42:	62 62 fd 58 bc 8f 58 	vfnmadd231pd 0xb58(%rdi){1to8},%zmm0,%zmm25
    6a49:	0b 00 00 
    6a4c:	62 62 fd 58 bc 97 38 	vfnmadd231pd 0xb38(%rdi){1to8},%zmm0,%zmm26
    6a53:	0b 00 00 
    6a56:	62 62 fd 58 bc 9f 38 	vfnmadd231pd 0xb38(%rdi){1to8},%zmm0,%zmm27
    6a5d:	0b 00 00 
    6a60:	62 62 fd 58 bc 67 08 	vfnmadd231pd 0x40(%rdi){1to8},%zmm0,%zmm28
    6a67:	62 62 fd 58 bc 6f 25 	vfnmadd231pd 0x128(%rdi){1to8},%zmm0,%zmm29
    6a6e:	62 62 fd 58 bc 77 24 	vfnmadd231pd 0x120(%rdi){1to8},%zmm0,%zmm30
    6a75:	62 62 fd 58 bc 7f 24 	vfnmadd231pd 0x120(%rdi){1to8},%zmm0,%zmm31
    6a7c:	62 f1 fd 48 10 86 00 	vmovupd 0x753000(%rsi),%zmm0
    6a83:	30 75 00 
    6a86:	62 62 fd 58 bc 87 60 	vfnmadd231pd 0xb60(%rdi){1to8},%zmm0,%zmm24
    6a8d:	0b 00 00 
    6a90:	62 62 fd 58 bc 8f 60 	vfnmadd231pd 0xb60(%rdi){1to8},%zmm0,%zmm25
    6a97:	0b 00 00 
    6a9a:	62 62 fd 58 bc 97 50 	vfnmadd231pd 0xb50(%rdi){1to8},%zmm0,%zmm26
    6aa1:	0b 00 00 
    6aa4:	62 62 fd 58 bc 9f 50 	vfnmadd231pd 0xb50(%rdi){1to8},%zmm0,%zmm27
    6aab:	0b 00 00 
    6aae:	62 62 fd 58 bc 67 09 	vfnmadd231pd 0x48(%rdi){1to8},%zmm0,%zmm28
    6ab5:	62 62 fd 58 bc 6f 26 	vfnmadd231pd 0x130(%rdi){1to8},%zmm0,%zmm29
    6abc:	62 62 fd 58 bc 77 27 	vfnmadd231pd 0x138(%rdi){1to8},%zmm0,%zmm30
    6ac3:	62 62 fd 58 bc 7f 27 	vfnmadd231pd 0x138(%rdi){1to8},%zmm0,%zmm31
    6aca:	62 f1 fd 48 10 86 00 	vmovupd 0x7b0c00(%rsi),%zmm0
    6ad1:	0c 7b 00 
    6ad4:	62 62 fd 58 bc 87 48 	vfnmadd231pd 0xb48(%rdi){1to8},%zmm0,%zmm24
    6adb:	0b 00 00 
    6ade:	62 62 fd 58 bc 8f 50 	vfnmadd231pd 0xb50(%rdi){1to8},%zmm0,%zmm25
    6ae5:	0b 00 00 
    6ae8:	62 62 fd 58 bc 97 60 	vfnmadd231pd 0xb60(%rdi){1to8},%zmm0,%zmm26
    6aef:	0b 00 00 
    6af2:	62 62 fd 58 bc 9f 48 	vfnmadd231pd 0xb48(%rdi){1to8},%zmm0,%zmm27
    6af9:	0b 00 00 
    6afc:	62 62 fd 58 bc 67 08 	vfnmadd231pd 0x40(%rdi){1to8},%zmm0,%zmm28
    6b03:	62 62 fd 58 bc 6f 24 	vfnmadd231pd 0x120(%rdi){1to8},%zmm0,%zmm29
    6b0a:	62 62 fd 58 bc 77 24 	vfnmadd231pd 0x120(%rdi){1to8},%zmm0,%zmm30
    6b11:	62 62 fd 58 bc 7f 25 	vfnmadd231pd 0x128(%rdi){1to8},%zmm0,%zmm31
    6b18:	62 f1 fd 48 10 86 00 	vmovupd 0x80e800(%rsi),%zmm0
    6b1f:	e8 80 00 
    6b22:	62 62 fd 58 bc 87 38 	vfnmadd231pd 0xb38(%rdi){1to8},%zmm0,%zmm24
    6b29:	0b 00 00 
    6b2c:	62 62 fd 58 bc 8f 40 	vfnmadd231pd 0xb40(%rdi){1to8},%zmm0,%zmm25
    6b33:	0b 00 00 
    6b36:	62 62 fd 58 bc 97 40 	vfnmadd231pd 0xb40(%rdi){1to8},%zmm0,%zmm26
    6b3d:	0b 00 00 
    6b40:	62 62 fd 58 bc 9f 58 	vfnmadd231pd 0xb58(%rdi){1to8},%zmm0,%zmm27
    6b47:	0b 00 00 
    6b4a:	62 62 fd 58 bc 67 09 	vfnmadd231pd 0x48(%rdi){1to8},%zmm0,%zmm28
    6b51:	62 62 fd 58 bc 6f 27 	vfnmadd231pd 0x138(%rdi){1to8},%zmm0,%zmm29
    6b58:	62 62 fd 58 bc 77 26 	vfnmadd231pd 0x130(%rdi){1to8},%zmm0,%zmm30
    6b5f:	62 62 fd 58 bc 7f 27 	vfnmadd231pd 0x138(%rdi){1to8},%zmm0,%zmm31
    6b66:	62 f1 fd 48 10 86 00 	vmovupd 0x86c400(%rsi),%zmm0
    6b6d:	c4 86 00 
    6b70:	62 62 fd 58 bc 87 50 	vfnmadd231pd 0xb50(%rdi){1to8},%zmm0,%zmm24
    6b77:	0b 00 00 
    6b7a:	62 62 fd 58 bc 8f 48 	vfnmadd231pd 0xb48(%rdi){1to8},%zmm0,%zmm25
    6b81:	0b 00 00 
    6b84:	62 62 fd 58 bc 97 48 	vfnmadd231pd 0xb48(%rdi){1to8},%zmm0,%zmm26
    6b8b:	0b 00 00 
    6b8e:	62 62 fd 58 bc 9f 60 	vfnmadd231pd 0xb60(%rdi){1to8},%zmm0,%zmm27
    6b95:	0b 00 00 
    6b98:	62 62 fd 58 bc 67 08 	vfnmadd231pd 0x40(%rdi){1to8},%zmm0,%zmm28
    6b9f:	62 62 fd 58 bc 6f 24 	vfnmadd231pd 0x120(%rdi){1to8},%zmm0,%zmm29
    6ba6:	62 62 fd 58 bc 77 25 	vfnmadd231pd 0x128(%rdi){1to8},%zmm0,%zmm30
    6bad:	62 62 fd 58 bc 7f 24 	vfnmadd231pd 0x120(%rdi){1to8},%zmm0,%zmm31
    6bb4:	62 f1 fd 48 10 86 00 	vmovupd 0x8ca000(%rsi),%zmm0
    6bbb:	a0 8c 00 
    6bbe:	62 62 fd 58 bc 87 b0 	vfnmadd231pd 0xbb0(%rdi){1to8},%zmm0,%zmm24
    6bc5:	0b 00 00 
    6bc8:	62 62 fd 58 bc 8f 68 	vfnmadd231pd 0xb68(%rdi){1to8},%zmm0,%zmm25
    6bcf:	0b 00 00 
    6bd2:	62 62 fd 58 b8 97 a8 	vfmadd231pd 0xba8(%rdi){1to8},%zmm0,%zmm26
    6bd9:	0b 00 00 
    6bdc:	62 62 fd 58 bc 9f b0 	vfnmadd231pd 0xbb0(%rdi){1to8},%zmm0,%zmm27
    6be3:	0b 00 00 
    6be6:	62 62 fd 58 b8 67 0b 	vfmadd231pd 0x58(%rdi){1to8},%zmm0,%zmm28
    6bed:	62 62 fd 58 b8 6f 2d 	vfmadd231pd 0x168(%rdi){1to8},%zmm0,%zmm29
    6bf4:	62 62 fd 58 b8 77 2b 	vfmadd231pd 0x158(%rdi){1to8},%zmm0,%zmm30
    6bfb:	62 62 fd 58 b8 7f 29 	vfmadd231pd 0x148(%rdi){1to8},%zmm0,%zmm31
    6c02:	62 f1 fd 48 10 86 00 	vmovupd 0x927c00(%rsi),%zmm0
    6c09:	7c 92 00 
    6c0c:	62 62 fd 58 bc 87 80 	vfnmadd231pd 0xb80(%rdi){1to8},%zmm0,%zmm24
    6c13:	0b 00 00 
    6c16:	62 62 fd 58 bc 8f c0 	vfnmadd231pd 0xbc0(%rdi){1to8},%zmm0,%zmm25
    6c1d:	0b 00 00 
    6c20:	62 62 fd 58 b8 97 a0 	vfmadd231pd 0xba0(%rdi){1to8},%zmm0,%zmm26
    6c27:	0b 00 00 
    6c2a:	62 62 fd 58 b8 9f 90 	vfmadd231pd 0xb90(%rdi){1to8},%zmm0,%zmm27
    6c31:	0b 00 00 
    6c34:	62 62 fd 58 b8 67 0b 	vfmadd231pd 0x58(%rdi){1to8},%zmm0,%zmm28
    6c3b:	62 62 fd 58 b8 6f 29 	vfmadd231pd 0x148(%rdi){1to8},%zmm0,%zmm29
    6c42:	62 62 fd 58 b8 77 2b 	vfmadd231pd 0x158(%rdi){1to8},%zmm0,%zmm30
    6c49:	62 62 fd 58 b8 7f 2d 	vfmadd231pd 0x168(%rdi){1to8},%zmm0,%zmm31
    6c50:	62 f1 fd 48 10 86 00 	vmovupd 0x985800(%rsi),%zmm0
    6c57:	58 98 00 
    6c5a:	62 62 fd 58 bc 87 98 	vfnmadd231pd 0xb98(%rdi){1to8},%zmm0,%zmm24
    6c61:	0b 00 00 
    6c64:	62 62 fd 58 bc 8f 88 	vfnmadd231pd 0xb88(%rdi){1to8},%zmm0,%zmm25
    6c6b:	0b 00 00 
    6c6e:	62 62 fd 58 bc 97 88 	vfnmadd231pd 0xb88(%rdi){1to8},%zmm0,%zmm26
    6c75:	0b 00 00 
    6c78:	62 62 fd 58 b8 9f 78 	vfmadd231pd 0xb78(%rdi){1to8},%zmm0,%zmm27
    6c7f:	0b 00 00 
    6c82:	62 62 fd 58 b8 67 0b 	vfmadd231pd 0x58(%rdi){1to8},%zmm0,%zmm28
    6c89:	62 62 fd 58 b8 6f 2b 	vfmadd231pd 0x158(%rdi){1to8},%zmm0,%zmm29
    6c90:	62 62 fd 58 b8 77 29 	vfmadd231pd 0x148(%rdi){1to8},%zmm0,%zmm30
    6c97:	62 62 fd 58 b8 7f 2d 	vfmadd231pd 0x168(%rdi){1to8},%zmm0,%zmm31
    6c9e:	62 f1 fd 48 10 86 00 	vmovupd 0x9e3400(%rsi),%zmm0
    6ca5:	34 9e 00 
    6ca8:	62 62 fd 58 b8 87 a0 	vfmadd231pd 0xba0(%rdi){1to8},%zmm0,%zmm24
    6caf:	0b 00 00 
    6cb2:	62 62 fd 58 b8 8f b8 	vfmadd231pd 0xbb8(%rdi){1to8},%zmm0,%zmm25
    6cb9:	0b 00 00 
    6cbc:	62 62 fd 58 bc 97 70 	vfnmadd231pd 0xb70(%rdi){1to8},%zmm0,%zmm26
    6cc3:	0b 00 00 
    6cc6:	62 62 fd 58 bc 9f c0 	vfnmadd231pd 0xbc0(%rdi){1to8},%zmm0,%zmm27
    6ccd:	0b 00 00 
    6cd0:	62 62 fd 58 bc 67 0c 	vfnmadd231pd 0x60(%rdi){1to8},%zmm0,%zmm28
    6cd7:	62 62 fd 58 bc 6f 2a 	vfnmadd231pd 0x150(%rdi){1to8},%zmm0,%zmm29
    6cde:	62 62 fd 58 bc 77 2c 	vfnmadd231pd 0x160(%rdi){1to8},%zmm0,%zmm30
    6ce5:	62 62 fd 58 bc 7f 2a 	vfnmadd231pd 0x150(%rdi){1to8},%zmm0,%zmm31
    6cec:	62 f1 fd 48 10 86 00 	vmovupd 0xa41000(%rsi),%zmm0
    6cf3:	10 a4 00 
    6cf6:	62 62 fd 58 b8 87 78 	vfmadd231pd 0xb78(%rdi){1to8},%zmm0,%zmm24
    6cfd:	0b 00 00 
    6d00:	62 62 fd 58 b8 8f 78 	vfmadd231pd 0xb78(%rdi){1to8},%zmm0,%zmm25
    6d07:	0b 00 00 
    6d0a:	62 62 fd 58 bc 97 98 	vfnmadd231pd 0xb98(%rdi){1to8},%zmm0,%zmm26
    6d11:	0b 00 00 
    6d14:	62 62 fd 58 bc 9f 98 	vfnmadd231pd 0xb98(%rdi){1to8},%zmm0,%zmm27
    6d1b:	0b 00 00 
    6d1e:	62 62 fd 58 bc 67 0a 	vfnmadd231pd 0x50(%rdi){1to8},%zmm0,%zmm28
    6d25:	62 62 fd 58 bc 6f 2e 	vfnmadd231pd 0x170(%rdi){1to8},%zmm0,%zmm29
    6d2c:	62 62 fd 58 b8 77 28 	vfmadd231pd 0x140(%rdi){1to8},%zmm0,%zmm30
    6d33:	62 62 fd 58 b8 7f 28 	vfmadd231pd 0x140(%rdi){1to8},%zmm0,%zmm31
    6d3a:	62 f1 fd 48 10 86 00 	vmovupd 0xa9ec00(%rsi),%zmm0
    6d41:	ec a9 00 
    6d44:	62 62 fd 58 b8 87 b8 	vfmadd231pd 0xbb8(%rdi){1to8},%zmm0,%zmm24
    6d4b:	0b 00 00 
    6d4e:	62 62 fd 58 b8 8f a0 	vfmadd231pd 0xba0(%rdi){1to8},%zmm0,%zmm25
    6d55:	0b 00 00 
    6d58:	62 62 fd 58 bc 97 c0 	vfnmadd231pd 0xbc0(%rdi){1to8},%zmm0,%zmm26
    6d5f:	0b 00 00 
    6d62:	62 62 fd 58 bc 9f 70 	vfnmadd231pd 0xb70(%rdi){1to8},%zmm0,%zmm27
    6d69:	0b 00 00 
    6d6c:	62 62 fd 58 bc 67 0c 	vfnmadd231pd 0x60(%rdi){1to8},%zmm0,%zmm28
    6d73:	62 62 fd 58 bc 6f 2a 	vfnmadd231pd 0x150(%rdi){1to8},%zmm0,%zmm29
    6d7a:	62 62 fd 58 bc 77 2a 	vfnmadd231pd 0x150(%rdi){1to8},%zmm0,%zmm30
    6d81:	62 62 fd 58 bc 7f 2c 	vfnmadd231pd 0x160(%rdi){1to8},%zmm0,%zmm31
    6d88:	62 f1 fd 48 10 86 00 	vmovupd 0xafc800(%rsi),%zmm0
    6d8f:	c8 af 00 
    6d92:	62 62 fd 58 bc 87 88 	vfnmadd231pd 0xb88(%rdi){1to8},%zmm0,%zmm24
    6d99:	0b 00 00 
    6d9c:	62 62 fd 58 bc 8f 98 	vfnmadd231pd 0xb98(%rdi){1to8},%zmm0,%zmm25
    6da3:	0b 00 00 
    6da6:	62 62 fd 58 b8 97 78 	vfmadd231pd 0xb78(%rdi){1to8},%zmm0,%zmm26
    6dad:	0b 00 00 
    6db0:	62 62 fd 58 bc 9f 88 	vfnmadd231pd 0xb88(%rdi){1to8},%zmm0,%zmm27
    6db7:	0b 00 00 
    6dba:	62 62 fd 58 b8 67 0b 	vfmadd231pd 0x58(%rdi){1to8},%zmm0,%zmm28
    6dc1:	62 62 fd 58 b8 6f 2b 	vfmadd231pd 0x158(%rdi){1to8},%zmm0,%zmm29
    6dc8:	62 62 fd 58 b8 77 2d 	vfmadd231pd 0x168(%rdi){1to8},%zmm0,%zmm30
    6dcf:	62 62 fd 58 b8 7f 29 	vfmadd231pd 0x148(%rdi){1to8},%zmm0,%zmm31
    6dd6:	62 f1 fd 48 10 86 00 	vmovupd 0xb5a400(%rsi),%zmm0
    6ddd:	a4 b5 00 
    6de0:	62 62 fd 58 bc 87 70 	vfnmadd231pd 0xb70(%rdi){1to8},%zmm0,%zmm24
    6de7:	0b 00 00 
    6dea:	62 62 fd 58 b8 8f 90 	vfmadd231pd 0xb90(%rdi){1to8},%zmm0,%zmm25
    6df1:	0b 00 00 
    6df4:	62 62 fd 58 bc 97 80 	vfnmadd231pd 0xb80(%rdi){1to8},%zmm0,%zmm26
    6dfb:	0b 00 00 
    6dfe:	62 62 fd 58 b8 9f b8 	vfmadd231pd 0xbb8(%rdi){1to8},%zmm0,%zmm27
    6e05:	0b 00 00 
    6e08:	62 62 fd 58 bc 67 0a 	vfnmadd231pd 0x50(%rdi){1to8},%zmm0,%zmm28
    6e0f:	62 62 fd 58 b8 6f 28 	vfmadd231pd 0x140(%rdi){1to8},%zmm0,%zmm29
    6e16:	62 62 fd 58 b8 77 28 	vfmadd231pd 0x140(%rdi){1to8},%zmm0,%zmm30
    6e1d:	62 62 fd 58 bc 7f 2e 	vfnmadd231pd 0x170(%rdi){1to8},%zmm0,%zmm31
    6e24:	62 f1 fd 48 10 86 00 	vmovupd 0xbb8000(%rsi),%zmm0
    6e2b:	80 bb 00 
    6e2e:	62 62 fd 58 bc 87 68 	vfnmadd231pd 0xb68(%rdi){1to8},%zmm0,%zmm24
    6e35:	0b 00 00 
    6e38:	62 62 fd 58 bc 8f b0 	vfnmadd231pd 0xbb0(%rdi){1to8},%zmm0,%zmm25
    6e3f:	0b 00 00 
    6e42:	62 62 fd 58 bc 97 b0 	vfnmadd231pd 0xbb0(%rdi){1to8},%zmm0,%zmm26
    6e49:	0b 00 00 
    6e4c:	62 62 fd 58 b8 9f a8 	vfmadd231pd 0xba8(%rdi){1to8},%zmm0,%zmm27
    6e53:	0b 00 00 
    6e56:	62 62 fd 58 b8 67 0b 	vfmadd231pd 0x58(%rdi){1to8},%zmm0,%zmm28
    6e5d:	62 62 fd 58 b8 6f 2d 	vfmadd231pd 0x168(%rdi){1to8},%zmm0,%zmm29
    6e64:	62 62 fd 58 b8 77 29 	vfmadd231pd 0x148(%rdi){1to8},%zmm0,%zmm30
    6e6b:	62 62 fd 58 b8 7f 2b 	vfmadd231pd 0x158(%rdi){1to8},%zmm0,%zmm31
    6e72:	62 f1 fd 48 10 86 00 	vmovupd 0xc15c00(%rsi),%zmm0
    6e79:	5c c1 00 
    6e7c:	62 62 fd 58 b8 87 a8 	vfmadd231pd 0xba8(%rdi){1to8},%zmm0,%zmm24
    6e83:	0b 00 00 
    6e86:	62 62 fd 58 b8 8f a8 	vfmadd231pd 0xba8(%rdi){1to8},%zmm0,%zmm25
    6e8d:	0b 00 00 
    6e90:	62 62 fd 58 bc 97 68 	vfnmadd231pd 0xb68(%rdi){1to8},%zmm0,%zmm26
    6e97:	0b 00 00 
    6e9a:	62 62 fd 58 bc 9f 68 	vfnmadd231pd 0xb68(%rdi){1to8},%zmm0,%zmm27
    6ea1:	0b 00 00 
    6ea4:	62 62 fd 58 bc 67 0c 	vfnmadd231pd 0x60(%rdi){1to8},%zmm0,%zmm28
    6eab:	62 62 fd 58 bc 6f 2c 	vfnmadd231pd 0x160(%rdi){1to8},%zmm0,%zmm29
    6eb2:	62 62 fd 58 bc 77 2a 	vfnmadd231pd 0x150(%rdi){1to8},%zmm0,%zmm30
    6eb9:	62 62 fd 58 bc 7f 2a 	vfnmadd231pd 0x150(%rdi){1to8},%zmm0,%zmm31
    6ec0:	62 f1 fd 48 10 86 00 	vmovupd 0xc73800(%rsi),%zmm0
    6ec7:	38 c7 00 
    6eca:	62 62 fd 58 bc 87 c0 	vfnmadd231pd 0xbc0(%rdi){1to8},%zmm0,%zmm24
    6ed1:	0b 00 00 
    6ed4:	62 62 fd 58 bc 8f 80 	vfnmadd231pd 0xb80(%rdi){1to8},%zmm0,%zmm25
    6edb:	0b 00 00 
    6ede:	62 62 fd 58 b8 97 90 	vfmadd231pd 0xb90(%rdi){1to8},%zmm0,%zmm26
    6ee5:	0b 00 00 
    6ee8:	62 62 fd 58 b8 9f a0 	vfmadd231pd 0xba0(%rdi){1to8},%zmm0,%zmm27
    6eef:	0b 00 00 
    6ef2:	62 62 fd 58 b8 67 0b 	vfmadd231pd 0x58(%rdi){1to8},%zmm0,%zmm28
    6ef9:	62 62 fd 58 b8 6f 29 	vfmadd231pd 0x148(%rdi){1to8},%zmm0,%zmm29
    6f00:	62 62 fd 58 b8 77 2d 	vfmadd231pd 0x168(%rdi){1to8},%zmm0,%zmm30
    6f07:	62 62 fd 58 b8 7f 2b 	vfmadd231pd 0x158(%rdi){1to8},%zmm0,%zmm31
    6f0e:	62 f1 fd 48 10 86 00 	vmovupd 0xcd1400(%rsi),%zmm0
    6f15:	14 cd 00 
    6f18:	62 62 fd 58 b8 87 90 	vfmadd231pd 0xb90(%rdi){1to8},%zmm0,%zmm24
    6f1f:	0b 00 00 
    6f22:	62 62 fd 58 bc 8f 70 	vfnmadd231pd 0xb70(%rdi){1to8},%zmm0,%zmm25
    6f29:	0b 00 00 
    6f2c:	62 62 fd 58 b8 97 b8 	vfmadd231pd 0xbb8(%rdi){1to8},%zmm0,%zmm26
    6f33:	0b 00 00 
    6f36:	62 62 fd 58 bc 9f 80 	vfnmadd231pd 0xb80(%rdi){1to8},%zmm0,%zmm27
    6f3d:	0b 00 00 
    6f40:	62 62 fd 58 bc 67 0a 	vfnmadd231pd 0x50(%rdi){1to8},%zmm0,%zmm28
    6f47:	62 62 fd 58 b8 6f 28 	vfmadd231pd 0x140(%rdi){1to8},%zmm0,%zmm29
    6f4e:	62 62 fd 58 bc 77 2e 	vfnmadd231pd 0x170(%rdi){1to8},%zmm0,%zmm30
    6f55:	62 62 fd 58 b8 7f 28 	vfmadd231pd 0x140(%rdi){1to8},%zmm0,%zmm31
    6f5c:	62 f1 fd 48 10 86 00 	vmovupd 0xd2f000(%rsi),%zmm0
    6f63:	f0 d2 00 
    6f66:	62 62 fd 58 b8 87 10 	vfmadd231pd 0xc10(%rdi){1to8},%zmm0,%zmm24
    6f6d:	0c 00 00 
    6f70:	62 62 fd 58 b8 8f c8 	vfmadd231pd 0xbc8(%rdi){1to8},%zmm0,%zmm25
    6f77:	0b 00 00 
    6f7a:	62 62 fd 58 bc 97 08 	vfnmadd231pd 0xc08(%rdi){1to8},%zmm0,%zmm26
    6f81:	0c 00 00 
    6f84:	62 62 fd 58 b8 9f 10 	vfmadd231pd 0xc10(%rdi){1to8},%zmm0,%zmm27
    6f8b:	0c 00 00 
    6f8e:	62 62 fd 58 bc 67 0e 	vfnmadd231pd 0x70(%rdi){1to8},%zmm0,%zmm28
    6f95:	62 62 fd 58 bc 6f 34 	vfnmadd231pd 0x1a0(%rdi){1to8},%zmm0,%zmm29
    6f9c:	62 62 fd 58 b8 77 32 	vfmadd231pd 0x190(%rdi){1to8},%zmm0,%zmm30
    6fa3:	62 62 fd 58 bc 7f 30 	vfnmadd231pd 0x180(%rdi){1to8},%zmm0,%zmm31
    6faa:	62 f1 fd 48 10 86 00 	vmovupd 0xd8cc00(%rsi),%zmm0
    6fb1:	cc d8 00 
    6fb4:	62 62 fd 58 b8 87 e0 	vfmadd231pd 0xbe0(%rdi){1to8},%zmm0,%zmm24
    6fbb:	0b 00 00 
    6fbe:	62 62 fd 58 bc 8f 20 	vfnmadd231pd 0xc20(%rdi){1to8},%zmm0,%zmm25
    6fc5:	0c 00 00 
    6fc8:	62 62 fd 58 b8 97 00 	vfmadd231pd 0xc00(%rdi){1to8},%zmm0,%zmm26
    6fcf:	0c 00 00 
    6fd2:	62 62 fd 58 bc 9f f0 	vfnmadd231pd 0xbf0(%rdi){1to8},%zmm0,%zmm27
    6fd9:	0b 00 00 
    6fdc:	62 62 fd 58 bc 67 0e 	vfnmadd231pd 0x70(%rdi){1to8},%zmm0,%zmm28
    6fe3:	62 62 fd 58 bc 6f 30 	vfnmadd231pd 0x180(%rdi){1to8},%zmm0,%zmm29
    6fea:	62 62 fd 58 b8 77 32 	vfmadd231pd 0x190(%rdi){1to8},%zmm0,%zmm30
    6ff1:	62 62 fd 58 bc 7f 34 	vfnmadd231pd 0x1a0(%rdi){1to8},%zmm0,%zmm31
    6ff8:	62 f1 fd 48 10 86 00 	vmovupd 0xdea800(%rsi),%zmm0
    6fff:	a8 de 00 
    7002:	62 62 fd 58 bc 87 f8 	vfnmadd231pd 0xbf8(%rdi){1to8},%zmm0,%zmm24
    7009:	0b 00 00 
    700c:	62 62 fd 58 b8 8f e8 	vfmadd231pd 0xbe8(%rdi){1to8},%zmm0,%zmm25
    7013:	0b 00 00 
    7016:	62 62 fd 58 b8 97 e8 	vfmadd231pd 0xbe8(%rdi){1to8},%zmm0,%zmm26
    701d:	0b 00 00 
    7020:	62 62 fd 58 bc 9f d8 	vfnmadd231pd 0xbd8(%rdi){1to8},%zmm0,%zmm27
    7027:	0b 00 00 
    702a:	62 62 fd 58 bc 67 0e 	vfnmadd231pd 0x70(%rdi){1to8},%zmm0,%zmm28
    7031:	62 62 fd 58 b8 6f 32 	vfmadd231pd 0x190(%rdi){1to8},%zmm0,%zmm29
    7038:	62 62 fd 58 bc 77 30 	vfnmadd231pd 0x180(%rdi){1to8},%zmm0,%zmm30
    703f:	62 62 fd 58 bc 7f 34 	vfnmadd231pd 0x1a0(%rdi){1to8},%zmm0,%zmm31
    7046:	62 f1 fd 48 10 86 00 	vmovupd 0xe48400(%rsi),%zmm0
    704d:	84 e4 00 
    7050:	62 62 fd 58 b8 87 00 	vfmadd231pd 0xc00(%rdi){1to8},%zmm0,%zmm24
    7057:	0c 00 00 
    705a:	62 62 fd 58 b8 8f 18 	vfmadd231pd 0xc18(%rdi){1to8},%zmm0,%zmm25
    7061:	0c 00 00 
    7064:	62 62 fd 58 bc 97 d0 	vfnmadd231pd 0xbd0(%rdi){1to8},%zmm0,%zmm26
    706b:	0b 00 00 
    706e:	62 62 fd 58 bc 9f 20 	vfnmadd231pd 0xc20(%rdi){1to8},%zmm0,%zmm27
    7075:	0c 00 00 
    7078:	62 62 fd 58 bc 67 0f 	vfnmadd231pd 0x78(%rdi){1to8},%zmm0,%zmm28
    707f:	62 62 fd 58 bc 6f 31 	vfnmadd231pd 0x188(%rdi){1to8},%zmm0,%zmm29
    7086:	62 62 fd 58 b8 77 33 	vfmadd231pd 0x198(%rdi){1to8},%zmm0,%zmm30
    708d:	62 62 fd 58 bc 7f 31 	vfnmadd231pd 0x188(%rdi){1to8},%zmm0,%zmm31
    7094:	62 f1 fd 48 10 86 00 	vmovupd 0xea6000(%rsi),%zmm0
    709b:	60 ea 00 
    709e:	62 62 fd 58 bc 87 d8 	vfnmadd231pd 0xbd8(%rdi){1to8},%zmm0,%zmm24
    70a5:	0b 00 00 
    70a8:	62 62 fd 58 bc 8f d8 	vfnmadd231pd 0xbd8(%rdi){1to8},%zmm0,%zmm25
    70af:	0b 00 00 
    70b2:	62 62 fd 58 bc 97 f8 	vfnmadd231pd 0xbf8(%rdi){1to8},%zmm0,%zmm26
    70b9:	0b 00 00 
    70bc:	62 62 fd 58 bc 9f f8 	vfnmadd231pd 0xbf8(%rdi){1to8},%zmm0,%zmm27
    70c3:	0b 00 00 
    70c6:	62 62 fd 58 b8 67 0d 	vfmadd231pd 0x68(%rdi){1to8},%zmm0,%zmm28
    70cd:	62 62 fd 58 bc 6f 35 	vfnmadd231pd 0x1a8(%rdi){1to8},%zmm0,%zmm29
    70d4:	62 62 fd 58 b8 77 2f 	vfmadd231pd 0x178(%rdi){1to8},%zmm0,%zmm30
    70db:	62 62 fd 58 b8 7f 2f 	vfmadd231pd 0x178(%rdi){1to8},%zmm0,%zmm31
    70e2:	62 f1 fd 48 10 86 00 	vmovupd 0xf03c00(%rsi),%zmm0
    70e9:	3c f0 00 
    70ec:	62 62 fd 58 b8 87 18 	vfmadd231pd 0xc18(%rdi){1to8},%zmm0,%zmm24
    70f3:	0c 00 00 
    70f6:	62 62 fd 58 b8 8f 00 	vfmadd231pd 0xc00(%rdi){1to8},%zmm0,%zmm25
    70fd:	0c 00 00 
    7100:	62 62 fd 58 bc 97 20 	vfnmadd231pd 0xc20(%rdi){1to8},%zmm0,%zmm26
    7107:	0c 00 00 
    710a:	62 62 fd 58 bc 9f d0 	vfnmadd231pd 0xbd0(%rdi){1to8},%zmm0,%zmm27
    7111:	0b 00 00 
    7114:	62 62 fd 58 bc 67 0f 	vfnmadd231pd 0x78(%rdi){1to8},%zmm0,%zmm28
    711b:	62 62 fd 58 bc 6f 31 	vfnmadd231pd 0x188(%rdi){1to8},%zmm0,%zmm29
    7122:	62 62 fd 58 bc 77 31 	vfnmadd231pd 0x188(%rdi){1to8},%zmm0,%zmm30
    7129:	62 62 fd 58 b8 7f 33 	vfmadd231pd 0x198(%rdi){1to8},%zmm0,%zmm31
    7130:	62 f1 fd 48 10 86 00 	vmovupd 0xf61800(%rsi),%zmm0
    7137:	18 f6 00 
    713a:	62 62 fd 58 b8 87 e8 	vfmadd231pd 0xbe8(%rdi){1to8},%zmm0,%zmm24
    7141:	0b 00 00 
    7144:	62 62 fd 58 bc 8f f8 	vfnmadd231pd 0xbf8(%rdi){1to8},%zmm0,%zmm25
    714b:	0b 00 00 
    714e:	62 62 fd 58 bc 97 d8 	vfnmadd231pd 0xbd8(%rdi){1to8},%zmm0,%zmm26
    7155:	0b 00 00 
    7158:	62 62 fd 58 b8 9f e8 	vfmadd231pd 0xbe8(%rdi){1to8},%zmm0,%zmm27
    715f:	0b 00 00 
    7162:	62 62 fd 58 bc 67 0e 	vfnmadd231pd 0x70(%rdi){1to8},%zmm0,%zmm28
    7169:	62 62 fd 58 b8 6f 32 	vfmadd231pd 0x190(%rdi){1to8},%zmm0,%zmm29
    7170:	62 62 fd 58 bc 77 34 	vfnmadd231pd 0x1a0(%rdi){1to8},%zmm0,%zmm30
    7177:	62 62 fd 58 bc 7f 30 	vfnmadd231pd 0x180(%rdi){1to8},%zmm0,%zmm31
    717e:	62 f1 fd 48 10 86 00 	vmovupd 0xfbf400(%rsi),%zmm0
    7185:	f4 fb 00 
    7188:	62 62 fd 58 bc 87 d0 	vfnmadd231pd 0xbd0(%rdi){1to8},%zmm0,%zmm24
    718f:	0b 00 00 
    7192:	62 62 fd 58 bc 8f f0 	vfnmadd231pd 0xbf0(%rdi){1to8},%zmm0,%zmm25
    7199:	0b 00 00 
    719c:	62 62 fd 58 b8 97 e0 	vfmadd231pd 0xbe0(%rdi){1to8},%zmm0,%zmm26
    71a3:	0b 00 00 
    71a6:	62 62 fd 58 b8 9f 18 	vfmadd231pd 0xc18(%rdi){1to8},%zmm0,%zmm27
    71ad:	0c 00 00 
    71b0:	62 62 fd 58 b8 67 0d 	vfmadd231pd 0x68(%rdi){1to8},%zmm0,%zmm28
    71b7:	62 62 fd 58 b8 6f 2f 	vfmadd231pd 0x178(%rdi){1to8},%zmm0,%zmm29
    71be:	62 62 fd 58 b8 77 2f 	vfmadd231pd 0x178(%rdi){1to8},%zmm0,%zmm30
    71c5:	62 62 fd 58 bc 7f 35 	vfnmadd231pd 0x1a8(%rdi){1to8},%zmm0,%zmm31
    71cc:	62 f1 fd 48 10 86 00 	vmovupd 0x101d000(%rsi),%zmm0
    71d3:	d0 01 01 
    71d6:	62 62 fd 58 b8 87 c8 	vfmadd231pd 0xbc8(%rdi){1to8},%zmm0,%zmm24
    71dd:	0b 00 00 
    71e0:	62 62 fd 58 b8 8f 10 	vfmadd231pd 0xc10(%rdi){1to8},%zmm0,%zmm25
    71e7:	0c 00 00 
    71ea:	62 62 fd 58 b8 97 10 	vfmadd231pd 0xc10(%rdi){1to8},%zmm0,%zmm26
    71f1:	0c 00 00 
    71f4:	62 62 fd 58 bc 9f 08 	vfnmadd231pd 0xc08(%rdi){1to8},%zmm0,%zmm27
    71fb:	0c 00 00 
    71fe:	62 62 fd 58 bc 67 0e 	vfnmadd231pd 0x70(%rdi){1to8},%zmm0,%zmm28
    7205:	62 62 fd 58 bc 6f 34 	vfnmadd231pd 0x1a0(%rdi){1to8},%zmm0,%zmm29
    720c:	62 62 fd 58 bc 77 30 	vfnmadd231pd 0x180(%rdi){1to8},%zmm0,%zmm30
    7213:	62 62 fd 58 b8 7f 32 	vfmadd231pd 0x190(%rdi){1to8},%zmm0,%zmm31
    721a:	62 f1 fd 48 10 86 00 	vmovupd 0x107ac00(%rsi),%zmm0
    7221:	ac 07 01 
    7224:	62 62 fd 58 bc 87 08 	vfnmadd231pd 0xc08(%rdi){1to8},%zmm0,%zmm24
    722b:	0c 00 00 
    722e:	62 62 fd 58 bc 8f 08 	vfnmadd231pd 0xc08(%rdi){1to8},%zmm0,%zmm25
    7235:	0c 00 00 
    7238:	62 62 fd 58 b8 97 c8 	vfmadd231pd 0xbc8(%rdi){1to8},%zmm0,%zmm26
    723f:	0b 00 00 
    7242:	62 62 fd 58 b8 9f c8 	vfmadd231pd 0xbc8(%rdi){1to8},%zmm0,%zmm27
    7249:	0b 00 00 
    724c:	62 62 fd 58 bc 67 0f 	vfnmadd231pd 0x78(%rdi){1to8},%zmm0,%zmm28
    7253:	62 62 fd 58 b8 6f 33 	vfmadd231pd 0x198(%rdi){1to8},%zmm0,%zmm29
    725a:	62 62 fd 58 bc 77 31 	vfnmadd231pd 0x188(%rdi){1to8},%zmm0,%zmm30
    7261:	62 62 fd 58 bc 7f 31 	vfnmadd231pd 0x188(%rdi){1to8},%zmm0,%zmm31
    7268:	62 f1 fd 48 10 86 00 	vmovupd 0x10d8800(%rsi),%zmm0
    726f:	88 0d 01 
    7272:	62 62 fd 58 bc 87 20 	vfnmadd231pd 0xc20(%rdi){1to8},%zmm0,%zmm24
    7279:	0c 00 00 
    727c:	62 62 fd 58 b8 8f e0 	vfmadd231pd 0xbe0(%rdi){1to8},%zmm0,%zmm25
    7283:	0b 00 00 
    7286:	62 62 fd 58 bc 97 f0 	vfnmadd231pd 0xbf0(%rdi){1to8},%zmm0,%zmm26
    728d:	0b 00 00 
    7290:	62 62 fd 58 b8 9f 00 	vfmadd231pd 0xc00(%rdi){1to8},%zmm0,%zmm27
    7297:	0c 00 00 
    729a:	62 62 fd 58 bc 67 0e 	vfnmadd231pd 0x70(%rdi){1to8},%zmm0,%zmm28
    72a1:	62 62 fd 58 bc 6f 30 	vfnmadd231pd 0x180(%rdi){1to8},%zmm0,%zmm29
    72a8:	62 62 fd 58 bc 77 34 	vfnmadd231pd 0x1a0(%rdi){1to8},%zmm0,%zmm30
    72af:	62 62 fd 58 b8 7f 32 	vfmadd231pd 0x190(%rdi){1to8},%zmm0,%zmm31
    72b6:	62 f1 fd 48 10 86 00 	vmovupd 0x1136400(%rsi),%zmm0
    72bd:	64 13 01 
    72c0:	62 62 fd 58 bc 87 f0 	vfnmadd231pd 0xbf0(%rdi){1to8},%zmm0,%zmm24
    72c7:	0b 00 00 
    72ca:	62 62 fd 58 bc 8f d0 	vfnmadd231pd 0xbd0(%rdi){1to8},%zmm0,%zmm25
    72d1:	0b 00 00 
    72d4:	62 62 fd 58 b8 97 18 	vfmadd231pd 0xc18(%rdi){1to8},%zmm0,%zmm26
    72db:	0c 00 00 
    72de:	62 62 fd 58 b8 9f e0 	vfmadd231pd 0xbe0(%rdi){1to8},%zmm0,%zmm27
    72e5:	0b 00 00 
    72e8:	62 62 fd 58 b8 67 0d 	vfmadd231pd 0x68(%rdi){1to8},%zmm0,%zmm28
    72ef:	62 62 fd 58 b8 6f 2f 	vfmadd231pd 0x178(%rdi){1to8},%zmm0,%zmm29
    72f6:	62 62 fd 58 bc 77 35 	vfnmadd231pd 0x1a8(%rdi){1to8},%zmm0,%zmm30
    72fd:	62 62 fd 58 b8 7f 2f 	vfmadd231pd 0x178(%rdi){1to8},%zmm0,%zmm31
    7304:	62 f1 fd 48 10 86 00 	vmovupd 0x1194000(%rsi),%zmm0
    730b:	40 19 01 
    730e:	62 62 fd 58 b8 87 70 	vfmadd231pd 0xc70(%rdi){1to8},%zmm0,%zmm24
    7315:	0c 00 00 
    7318:	62 62 fd 58 b8 8f 28 	vfmadd231pd 0xc28(%rdi){1to8},%zmm0,%zmm25
    731f:	0c 00 00 
    7322:	62 62 fd 58 bc 97 68 	vfnmadd231pd 0xc68(%rdi){1to8},%zmm0,%zmm26
    7329:	0c 00 00 
    732c:	62 62 fd 58 b8 9f 70 	vfmadd231pd 0xc70(%rdi){1to8},%zmm0,%zmm27
    7333:	0c 00 00 
    7336:	62 62 fd 58 bc 67 11 	vfnmadd231pd 0x88(%rdi){1to8},%zmm0,%zmm28
    733d:	62 62 fd 58 bc 6f 3b 	vfnmadd231pd 0x1d8(%rdi){1to8},%zmm0,%zmm29
    7344:	62 62 fd 58 bc 77 39 	vfnmadd231pd 0x1c8(%rdi){1to8},%zmm0,%zmm30
    734b:	62 62 fd 58 bc 7f 37 	vfnmadd231pd 0x1b8(%rdi){1to8},%zmm0,%zmm31
    7352:	62 f1 fd 48 10 86 00 	vmovupd 0x11f1c00(%rsi),%zmm0
    7359:	1c 1f 01 
    735c:	62 62 fd 58 b8 87 40 	vfmadd231pd 0xc40(%rdi){1to8},%zmm0,%zmm24
    7363:	0c 00 00 
    7366:	62 62 fd 58 b8 8f 80 	vfmadd231pd 0xc80(%rdi){1to8},%zmm0,%zmm25
    736d:	0c 00 00 
    7370:	62 62 fd 58 bc 97 60 	vfnmadd231pd 0xc60(%rdi){1to8},%zmm0,%zmm26
    7377:	0c 00 00 
    737a:	62 62 fd 58 b8 9f 50 	vfmadd231pd 0xc50(%rdi){1to8},%zmm0,%zmm27
    7381:	0c 00 00 
    7384:	62 62 fd 58 bc 67 11 	vfnmadd231pd 0x88(%rdi){1to8},%zmm0,%zmm28
    738b:	62 62 fd 58 bc 6f 37 	vfnmadd231pd 0x1b8(%rdi){1to8},%zmm0,%zmm29
    7392:	62 62 fd 58 bc 77 39 	vfnmadd231pd 0x1c8(%rdi){1to8},%zmm0,%zmm30
    7399:	62 62 fd 58 bc 7f 3b 	vfnmadd231pd 0x1d8(%rdi){1to8},%zmm0,%zmm31
    73a0:	62 f1 fd 48 10 86 00 	vmovupd 0x124f800(%rsi),%zmm0
    73a7:	f8 24 01 
    73aa:	62 62 fd 58 bc 87 58 	vfnmadd231pd 0xc58(%rdi){1to8},%zmm0,%zmm24
    73b1:	0c 00 00 
    73b4:	62 62 fd 58 b8 8f 48 	vfmadd231pd 0xc48(%rdi){1to8},%zmm0,%zmm25
    73bb:	0c 00 00 
    73be:	62 62 fd 58 b8 97 48 	vfmadd231pd 0xc48(%rdi){1to8},%zmm0,%zmm26
    73c5:	0c 00 00 
    73c8:	62 62 fd 58 b8 9f 38 	vfmadd231pd 0xc38(%rdi){1to8},%zmm0,%zmm27
    73cf:	0c 00 00 
    73d2:	62 62 fd 58 bc 67 11 	vfnmadd231pd 0x88(%rdi){1to8},%zmm0,%zmm28
    73d9:	62 62 fd 58 bc 6f 39 	vfnmadd231pd 0x1c8(%rdi){1to8},%zmm0,%zmm29
    73e0:	62 62 fd 58 bc 77 37 	vfnmadd231pd 0x1b8(%rdi){1to8},%zmm0,%zmm30
    73e7:	62 62 fd 58 bc 7f 3b 	vfnmadd231pd 0x1d8(%rdi){1to8},%zmm0,%zmm31
    73ee:	62 f1 fd 48 10 86 00 	vmovupd 0x12ad400(%rsi),%zmm0
    73f5:	d4 2a 01 
    73f8:	62 62 fd 58 bc 87 60 	vfnmadd231pd 0xc60(%rdi){1to8},%zmm0,%zmm24
    73ff:	0c 00 00 
    7402:	62 62 fd 58 b8 8f 78 	vfmadd231pd 0xc78(%rdi){1to8},%zmm0,%zmm25
    7409:	0c 00 00 
    740c:	62 62 fd 58 b8 97 30 	vfmadd231pd 0xc30(%rdi){1to8},%zmm0,%zmm26
    7413:	0c 00 00 
    7416:	62 62 fd 58 b8 9f 80 	vfmadd231pd 0xc80(%rdi){1to8},%zmm0,%zmm27
    741d:	0c 00 00 
    7420:	62 62 fd 58 b8 67 12 	vfmadd231pd 0x90(%rdi){1to8},%zmm0,%zmm28
    7427:	62 62 fd 58 bc 6f 38 	vfnmadd231pd 0x1c0(%rdi){1to8},%zmm0,%zmm29
    742e:	62 62 fd 58 b8 77 3a 	vfmadd231pd 0x1d0(%rdi){1to8},%zmm0,%zmm30
    7435:	62 62 fd 58 bc 7f 38 	vfnmadd231pd 0x1c0(%rdi){1to8},%zmm0,%zmm31
    743c:	62 f1 fd 48 10 86 00 	vmovupd 0x130b000(%rsi),%zmm0
    7443:	b0 30 01 
